

Microchip MPLAB XC8 Assembler V2.41 build 20230208172133 
                                                                                               Thu Aug 03 06:04:26 2023

Microchip MPLAB XC8 C Compiler v2.41 (Free license) build 20230208172133 Og1 
     1                           	processor	18F4620
     2                           	fnconf	rparam,??,?,0
     3                           	pagewidth 120
     4                           	opt	flic
     5                           	psect	idataCOMRAM,global,class=CODE,delta=1,noexec
     6                           	psect	smallconst,global,reloc=2,class=SMALLCONST,delta=1,noexec
     7                           	psect	nvCOMRAM,global,class=COMRAM,space=1,delta=1,lowdata,noexec
     8                           	psect	cinit,global,reloc=2,class=CODE,delta=1
     9                           	psect	bssCOMRAM,global,class=COMRAM,space=1,delta=1,lowdata,noexec
    10                           	psect	dataCOMRAM,global,class=COMRAM,space=1,delta=1,lowdata,noexec
    11                           	psect	cstackBANK0,global,class=BANK0,space=1,delta=1,lowdata,noexec
    12                           	psect	cstackCOMRAM,global,class=COMRAM,space=1,delta=1,lowdata,noexec
    13                           	psect	text0,global,reloc=2,class=CODE,delta=1
    14                           	psect	text1,global,reloc=2,class=CODE,delta=1
    15                           	psect	text2,global,reloc=2,class=CODE,delta=1
    16                           	psect	text3,global,reloc=2,class=CODE,delta=1
    17                           	psect	text4,global,reloc=2,class=CODE,delta=1
    18                           	psect	intcode,global,reloc=2,class=CODE,delta=1
    19                           	psect	intcode_body,global,reloc=2,class=CODE,delta=1
    20                           	psect	text6,global,reloc=2,class=CODE,delta=1
    21                           	psect	text7,global,reloc=2,class=CODE,delta=1
    22                           	psect	text8,global,reloc=2,class=CODE,delta=1
    23                           	psect	text9,global,reloc=2,class=CODE,delta=1
    24                           	psect	text10,global,reloc=2,class=CODE,delta=1
    25                           	psect	text11,global,reloc=2,class=CODE,delta=1
    26                           	psect	text12,global,reloc=2,class=CODE,delta=1
    27                           	psect	text13,global,reloc=2,class=CODE,delta=1
    28                           	psect	text14,global,reloc=2,class=CODE,delta=1
    29                           	psect	text15,global,reloc=2,class=CODE,delta=1
    30                           	psect	text16,global,reloc=2,class=CODE,delta=1
    31                           	psect	text17,global,reloc=2,class=CODE,delta=1
    32                           	psect	text18,global,reloc=2,class=CODE,delta=1
    33                           	psect	text19,global,reloc=2,class=CODE,delta=1
    34                           	psect	intsave_regs,global,class=BIGRAM,space=1,delta=1,noexec
    35                           	psect	text20,global,reloc=2,class=CODE,delta=1
    36                           	psect	rparam,global,class=COMRAM,space=1,delta=1,noexec
    37                           	psect	temp,global,ovrld,common,class=COMRAM,space=1,delta=1
    38                           	psect	config,global,abs,ovrld,class=CONFIG,space=4,delta=1,noexec
    39   000000                     
    40                           ; Generated 23/03/2023 GMT
    41                           ; 
    42                           ; Copyright © 2023, Microchip Technology Inc. and its subsidiaries ("Microchip")
    43                           ; All rights reserved.
    44                           ; 
    45                           ; This software is developed by Microchip Technology Inc. and its subsidiaries ("Microch
      +                          ip").
    46                           ; 
    47                           ; Redistribution and use in source and binary forms, with or without modification, are
    48                           ; permitted provided that the following conditions are met:
    49                           ; 
    50                           ;     1. Redistributions of source code must retain the above copyright notice, this lis
      +                          t of
    51                           ;        conditions and the following disclaimer.
    52                           ; 
    53                           ;     2. Redistributions in binary form must reproduce the above copyright notice, this 
      +                          list
    54                           ;        of conditions and the following disclaimer in the documentation and/or other
    55                           ;        materials provided with the distribution. Publication is not required when
    56                           ;        this file is used in an embedded application.
    57                           ; 
    58                           ;     3. Microchip's name may not be used to endorse or promote products derived from th
      +                          is
    59                           ;        software without specific prior written permission.
    60                           ; 
    61                           ; THIS SOFTWARE IS PROVIDED BY MICROCHIP "AS IS" AND ANY EXPRESS OR IMPLIED WARRANTIES,
    62                           ; INCLUDING, BUT NOT LIMITED TO, THE IMPLIED WARRANTIES OF MERCHANTABILITY AND FITNESS F
      +                          OR
    63                           ; PURPOSE ARE DISCLAIMED.  IN NO EVENT SHALL MICROCHIP BE LIABLE FOR ANY DIRECT, INDIREC
      +                          T,
    64                           ; INCIDENTAL, SPECIAL, EXEMPLARY, OR CONSEQUENTIAL DAMAGES (INCLUDING BUT NOT LIMITED TO
    65                           ; PROCUREMENT OF SUBSTITUTE GOODS OR SERVICES; LOSS OF USE, DATA OR PROFITS; OR BUSINESS
    66                           ; INTERRUPTION) HOWSOEVER CAUSED AND ON ANY THEORY OF LIABILITY, WHETHER IN CONTRACT, ST
      +                          RICT
    67                           ; LIABILITY, OR TORT (INCLUDING NEGLIGENCE OR OTHERWISE) ARISING IN ANY WAY OUT OF THE U
      +                          SE OF
    68                           ; THIS SOFTWARE, EVEN IF ADVISED OF THE POSSIBILITY OF SUCH DAMAGE.
    69                           ; 
    70                           ; 
    71                           ; Code-generator required, PIC18F4620 Definitions
    72                           ; 
    73                           ; SFR Addresses
    74   000000                     
    75                           	psect	idataCOMRAM
    76   001A80                     __pidataCOMRAM:
    77                           	callstack 0
    78                           
    79                           ;initializer for _port_register
    80   001A80  80                 	db	128
    81   001A81  0F                 	db	15
    82   001A82  81                 	db	129
    83   001A83  0F                 	db	15
    84   001A84  82                 	db	130
    85   001A85  0F                 	db	15
    86   001A86  83                 	db	131
    87   001A87  0F                 	db	15
    88   001A88  84                 	db	132
    89   001A89  0F                 	db	15
    90                           
    91                           ;initializer for _lat_register
    92   001A8A  89                 	db	137
    93   001A8B  0F                 	db	15
    94   001A8C  8A                 	db	138
    95   001A8D  0F                 	db	15
    96   001A8E  8B                 	db	139
    97   001A8F  0F                 	db	15
    98   001A90  8C                 	db	140
    99   001A91  0F                 	db	15
   100   001A92  8D                 	db	141
   101   001A93  0F                 	db	15
   102                           
   103                           ;initializer for _tris_register
   104   001A94  92                 	db	146
   105   001A95  0F                 	db	15
   106   001A96  93                 	db	147
   107   001A97  0F                 	db	15
   108   001A98  94                 	db	148
   109   001A99  0F                 	db	15
   110   001A9A  95                 	db	149
   111   001A9B  0F                 	db	15
   112   001A9C  96                 	db	150
   113   001A9D  0F                 	db	15
   114                           
   115                           ;initializer for _RB7_FLAG
   116   001A9E  01                 	db	1
   117                           
   118                           ;initializer for _RB6_FLAG
   119   001A9F  01                 	db	1
   120                           
   121                           ;initializer for _RB5_FLAG
   122   001AA0  01                 	db	1
   123                           
   124                           ;initializer for _RB4_FLAG
   125   001AA1  01                 	db	1
   126                           
   127                           ;initializer for _obj_rb5
   128   001AA2  DC                 	db	low _RB5_APP_ISR_HIGH
   129   001AA3  1A                 	db	high _RB5_APP_ISR_HIGH
   130   001AA4  C0                 	db	low _RB5_APP_ISR_LOW
   131   001AA5  1A                 	db	high _RB5_APP_ISR_LOW
   132   001AA6  69                 	db	105
   133   001AA7  01                 	db	1
   134                           
   135                           ;initializer for _obj_rb4
   136   001AA8  CE                 	db	low _RB4_APP_ISR_HIGH
   137   001AA9  1A                 	db	high _RB4_APP_ISR_HIGH
   138   001AAA  B2                 	db	low _RB4_APP_ISR_LOW
   139   001AAB  1A                 	db	high _RB4_APP_ISR_LOW
   140   001AAC  61                 	db	97
   141   001AAD  01                 	db	1
   142                           
   143                           ;initializer for _led2
   144   001AAE  12                 	db	18
   145   001AAF  00                 	db	0
   146                           
   147                           ;initializer for _led1
   148   001AB0  02                 	db	2
   149   001AB1  00                 	db	0
   150                           
   151                           	psect	smallconst
   152   001000                     __psmallconst:
   153                           	callstack 0
   154   001000  00                 	db	0
   155   001001                     _btn_values:
   156                           	callstack 0
   157   001001  37                 	db	55
   158   001002  38                 	db	56
   159   001003  39                 	db	57
   160   001004  2F                 	db	47
   161   001005  34                 	db	52
   162   001006  35                 	db	53
   163   001007  36                 	db	54
   164   001008  2A                 	db	42
   165   001009  31                 	db	49
   166   00100A  32                 	db	50
   167   00100B  33                 	db	51
   168   00100C  2D                 	db	45
   169   00100D  23                 	db	35
   170   00100E  30                 	db	48
   171   00100F  3D                 	db	61
   172   001010  2B                 	db	43
   173   001011                     __end_of_btn_values:
   174                           	callstack 0
   175   000000                     _INTCON2bits	set	4081
   176   001011                     STR_1:
   177   001011  25                 	db	37
   178   001012  69                 	db	105	;'i'
   179   001013  00                 	db	0
   180   001014  00                 	db	0	; dummy byte at the end
   181   000000                     
   182                           	psect	nvCOMRAM
   183   000069                     __pnvCOMRAM:
   184                           	callstack 0
   185   000069                     _ret:
   186                           	callstack 0
   187   000069                     	ds	1
   188   000000                     _PORTBbits	set	3969
   189   000000                     _PORTE	set	3972
   190   000000                     _PORTD	set	3971
   191   000000                     _PORTC	set	3970
   192   000000                     _PORTB	set	3969
   193   000000                     _PORTA	set	3968
   194   000000                     _LATA	set	3977
   195   000000                     _TRISA	set	3986
   196   000000                     _INTCON3bits	set	4080
   197   000000                     _INTCONbits	set	4082
   198   000000                     _TRISE	set	3990
   199   000000                     _TRISD	set	3989
   200   000000                     _TRISC	set	3988
   201   000000                     _TRISB	set	3987
   202   000000                     _LATE	set	3981
   203   000000                     _LATD	set	3980
   204   000000                     _LATC	set	3979
   205   000000                     _LATB	set	3978
   206                           
   207                           ; #config settings
   208                           
   209                           	psect	cinit
   210   001A4A                     __pcinit:
   211                           	callstack 0
   212   001A4A                     start_initialization:
   213                           	callstack 0
   214   001A4A                     __initialization:
   215                           	callstack 0
   216                           
   217                           ; Initialize objects allocated to COMRAM (50 bytes)
   218                           ; load TBLPTR registers with __pidataCOMRAM
   219   001A4A  0E80               	movlw	low __pidataCOMRAM
   220   001A4C  6EF6               	movwf	tblptrl,c
   221   001A4E  0E1A               	movlw	high __pidataCOMRAM
   222   001A50  6EF7               	movwf	tblptrh,c
   223   001A52  0E00               	movlw	low (__pidataCOMRAM shr (0+16))
   224   001A54  6EF8               	movwf	tblptru,c
   225   001A56  EE00  F001         	lfsr	0,__pdataCOMRAM
   226   001A5A  EE10 F032          	lfsr	1,50
   227   001A5E                     copy_data0:
   228   001A5E  0009               	tblrd		*+
   229   001A60  CFF5 FFEE          	movff	tablat,postinc0
   230   001A64  50E5               	movf	postdec1,w,c
   231   001A66  50E1               	movf	fsr1l,w,c
   232   001A68  E1FA               	bnz	copy_data0
   233                           
   234                           ; Clear objects allocated to COMRAM (30 bytes)
   235   001A6A  EE00  F033         	lfsr	0,__pbssCOMRAM
   236   001A6E  0E1E               	movlw	30
   237   001A70                     clear_0:
   238   001A70  6AEE               	clrf	postinc0,c
   239   001A72  06E8               	decf	wreg,f,c
   240   001A74  E1FD               	bnz	clear_0
   241   001A76                     end_of_initialization:
   242                           	callstack 0
   243   001A76                     __end_of__initialization:
   244                           	callstack 0
   245   001A76  906A               	bcf	int$flags,0,c	;clear compiler interrupt flag (level 1)
   246   001A78  926A               	bcf	int$flags,1,c	;clear compiler interrupt flag (level 2)
   247   001A7A  0100               	movlb	0
   248   001A7C  EFFF  F00C         	goto	_main	;jump to C main() function
   249                           
   250                           	psect	bssCOMRAM
   251   000033                     __pbssCOMRAM:
   252                           	callstack 0
   253   000033                     _RB7_InterruptHandler_LOW:
   254                           	callstack 0
   255   000033                     	ds	2
   256   000035                     _RB7_InterruptHandler_HIGH:
   257                           	callstack 0
   258   000035                     	ds	2
   259   000037                     _RB6_InterruptHandler_LOW:
   260                           	callstack 0
   261   000037                     	ds	2
   262   000039                     _RB6_InterruptHandler_HIGH:
   263                           	callstack 0
   264   000039                     	ds	2
   265   00003B                     _RB5_InterruptHandler_LOW:
   266                           	callstack 0
   267   00003B                     	ds	2
   268   00003D                     _RB5_InterruptHandler_HIGH:
   269                           	callstack 0
   270   00003D                     	ds	2
   271   00003F                     _RB4_InterruptHandler_LOW:
   272                           	callstack 0
   273   00003F                     	ds	2
   274   000041                     _RB4_InterruptHandler_HIGH:
   275                           	callstack 0
   276   000041                     	ds	2
   277   000043                     _INT2_InterruptHandler:
   278                           	callstack 0
   279   000043                     	ds	2
   280   000045                     _INT1_InterruptHandler:
   281                           	callstack 0
   282   000045                     	ds	2
   283   000047                     _INT0_InterruptHandler:
   284                           	callstack 0
   285   000047                     	ds	2
   286   000049                     relay_toggle@F3059:
   287                           	callstack 0
   288   000049                     	ds	1
   289   00004A                     relay_turn_off@F3054:
   290                           	callstack 0
   291   00004A                     	ds	1
   292   00004B                     relay_turn_on@F3049:
   293                           	callstack 0
   294   00004B                     	ds	1
   295   00004C                     relay_initialize@F3044:
   296                           	callstack 0
   297   00004C                     	ds	1
   298   00004D                     led_toggle@F3063:
   299                           	callstack 0
   300   00004D                     	ds	1
   301   00004E                     led_turn_off@F3058:
   302                           	callstack 0
   303   00004E                     	ds	1
   304   00004F                     led_turn_on@F3053:
   305                           	callstack 0
   306   00004F                     	ds	1
   307   000050                     led_initialize@F3048:
   308                           	callstack 0
   309   000050                     	ds	1
   310                           
   311                           	psect	dataCOMRAM
   312   000001                     __pdataCOMRAM:
   313                           	callstack 0
   314   000001                     _port_register:
   315                           	callstack 0
   316   000001                     	ds	10
   317   00000B                     _lat_register:
   318                           	callstack 0
   319   00000B                     	ds	10
   320   000015                     _tris_register:
   321                           	callstack 0
   322   000015                     	ds	10
   323   00001F                     _RB7_FLAG:
   324                           	callstack 0
   325   00001F                     	ds	1
   326   000020                     _RB6_FLAG:
   327                           	callstack 0
   328   000020                     	ds	1
   329   000021                     _RB5_FLAG:
   330                           	callstack 0
   331   000021                     	ds	1
   332   000022                     _RB4_FLAG:
   333                           	callstack 0
   334   000022                     	ds	1
   335   000023                     _obj_rb5:
   336                           	callstack 0
   337   000023                     	ds	6
   338   000029                     _obj_rb4:
   339                           	callstack 0
   340   000029                     	ds	6
   341   00002F                     _led2:
   342                           	callstack 0
   343   00002F                     	ds	2
   344   000031                     _led1:
   345                           	callstack 0
   346   000031                     	ds	2
   347                           
   348                           	psect	cstackBANK0
   349   000080                     __pcstackBANK0:
   350                           	callstack 0
   351   000080                     ??_gpio_pin_direction_initialize:
   352                           
   353                           ; 1 bytes @ 0x0
   354   000080                     	ds	6
   355   000086                     led_initialize@led:
   356                           	callstack 0
   357   000086                     interrupt_RBx_init@rb_obj:
   358                           	callstack 0
   359                           
   360                           ; 2 bytes @ 0x6
   361   000086                     	ds	2
   362   000088                     ??_led_initialize:
   363   000088                     ??_interrupt_RBx_init:
   364                           
   365                           ; 1 bytes @ 0x8
   366   000088                     	ds	1
   367   000089                     led_initialize@ret:
   368                           	callstack 0
   369                           
   370                           ; 1 bytes @ 0x9
   371   000089                     	ds	1
   372   00008A                     led_initialize@led_pin:
   373                           	callstack 0
   374   00008A                     interrupt_RBx_init@ret:
   375                           	callstack 0
   376                           
   377                           ; 1 bytes @ 0xA
   378   00008A                     	ds	1
   379                           
   380                           	psect	cstackCOMRAM
   381   000051                     __pcstackCOMRAM:
   382                           	callstack 0
   383   000051                     gpio_pin_write_logic@pin_config:
   384                           	callstack 0
   385                           
   386                           ; 2 bytes @ 0x0
   387   000051                     	ds	2
   388   000053                     gpio_pin_write_logic@logic:
   389                           	callstack 0
   390                           
   391                           ; 1 bytes @ 0x2
   392   000053                     	ds	1
   393   000054                     ??_gpio_pin_write_logic:
   394                           
   395                           ; 1 bytes @ 0x3
   396   000054                     	ds	6
   397   00005A                     gpio_pin_write_logic@ret:
   398                           	callstack 0
   399                           
   400                           ; 1 bytes @ 0x9
   401   00005A                     	ds	1
   402   00005B                     led_turn_on@led:
   403                           	callstack 0
   404   00005B                     led_turn_off@led:
   405                           	callstack 0
   406                           
   407                           ; 2 bytes @ 0xA
   408   00005B                     	ds	2
   409   00005D                     ??_led_turn_on:
   410   00005D                     ??_led_turn_off:
   411                           
   412                           ; 1 bytes @ 0xC
   413   00005D                     	ds	1
   414   00005E                     led_turn_on@led_pin:
   415                           	callstack 0
   416   00005E                     led_turn_off@led_pin:
   417                           	callstack 0
   418                           
   419                           ; 1 bytes @ 0xD
   420   00005E                     	ds	1
   421   00005F                     RB4_ISR@rb4_source:
   422                           	callstack 0
   423   00005F                     RB5_ISR@rb5_source:
   424                           	callstack 0
   425   00005F                     RB6_ISR@rb6_source:
   426                           	callstack 0
   427   00005F                     RB7_ISR@rb7_source:
   428                           	callstack 0
   429                           
   430                           ; 1 bytes @ 0xE
   431   00005F                     	ds	1
   432   000060                     ??_InterruptNoPriority:
   433                           
   434                           ; 1 bytes @ 0xF
   435   000060                     	ds	6
   436   000066                     gpio_pin_direction_initialize@pin_config:
   437                           	callstack 0
   438                           
   439                           ; 2 bytes @ 0x15
   440   000066                     	ds	2
   441   000068                     gpio_pin_direction_initialize@ret:
   442                           	callstack 0
   443                           
   444                           ; 1 bytes @ 0x17
   445   000068                     	ds	1
   446   000069                     
   447                           ; 1 bytes @ 0x18
   448 ;;
   449 ;;Main: autosize = 0, tempsize = 0, incstack = 0, save=0
   450 ;;
   451 ;; *************** function _main *****************
   452 ;; Defined at:
   453 ;;		line 67 in file "application.c"
   454 ;; Parameters:    Size  Location     Type
   455 ;;		None
   456 ;; Auto vars:     Size  Location     Type
   457 ;;		None
   458 ;; Return value:  Size  Location     Type
   459 ;;                  2  728[None  ] int 
   460 ;; Registers used:
   461 ;;		wreg, fsr2l, fsr2h, status,2, status,0, prodl, prodh, cstack
   462 ;; Tracked objects:
   463 ;;		On entry : 0/0
   464 ;;		On exit  : 0/0
   465 ;;		Unchanged: 0/0
   466 ;; Data sizes:     COMRAM   BANK0   BANK1   BANK2   BANK3   BANK4   BANK5   BANK6   BANK7   BANK8   BANK9  BANK10  BANK1
      +1  BANK12  BANK13  BANK14  BANK15
   467 ;;      Params:         0       0       0       0       0       0       0       0       0       0       0       0       
      +0       0       0       0       0
   468 ;;      Locals:         0       0       0       0       0       0       0       0       0       0       0       0       
      +0       0       0       0       0
   469 ;;      Temps:          0       0       0       0       0       0       0       0       0       0       0       0       
      +0       0       0       0       0
   470 ;;      Totals:         0       0       0       0       0       0       0       0       0       0       0       0       
      +0       0       0       0       0
   471 ;;Total ram usage:        0 bytes
   472 ;; Hardware stack levels required when called: 7
   473 ;; This function calls:
   474 ;;		_application_initialize
   475 ;;		_interrupt_RBx_init
   476 ;;		_led_initialize
   477 ;; This function is called by:
   478 ;;		Startup code after reset
   479 ;; This function uses a non-reentrant model
   480 ;;
   481                           
   482                           	psect	text0
   483   0019FE                     __ptext0:
   484                           	callstack 0
   485   0019FE                     _main:
   486                           	callstack 24
   487   0019FE                     
   488                           ;application.c: 68:     ret = interrupt_RBx_init(&obj_rb4);
   489   0019FE  0E29               	movlw	low _obj_rb4
   490   001A00  0100               	movlb	0	; () banked
   491   001A02  6F86               	movwf	interrupt_RBx_init@rb_obj& (0+255),b
   492   001A04  0E00               	movlw	high _obj_rb4
   493   001A06  6F87               	movwf	(interrupt_RBx_init@rb_obj+1)& (0+255),b
   494   001A08  EC0B  F00A         	call	_interrupt_RBx_init	;wreg free
   495   001A0C  6E69               	movwf	_ret^0,c
   496                           
   497                           ;application.c: 69:     ret = interrupt_RBx_init(&obj_rb5);
   498   001A0E  0E23               	movlw	low _obj_rb5
   499   001A10  0100               	movlb	0	; () banked
   500   001A12  6F86               	movwf	interrupt_RBx_init@rb_obj& (0+255),b
   501   001A14  0E00               	movlw	high _obj_rb5
   502   001A16  6F87               	movwf	(interrupt_RBx_init@rb_obj+1)& (0+255),b
   503   001A18  EC0B  F00A         	call	_interrupt_RBx_init	;wreg free
   504   001A1C  6E69               	movwf	_ret^0,c
   505                           
   506                           ;application.c: 70:     ret = led_initialize(&led1);
   507   001A1E  0E31               	movlw	low _led1
   508   001A20  0100               	movlb	0	; () banked
   509   001A22  6F86               	movwf	led_initialize@led& (0+255),b
   510   001A24  0E00               	movlw	high _led1
   511   001A26  6F87               	movwf	(led_initialize@led+1)& (0+255),b
   512   001A28  EC3B  F00B         	call	_led_initialize	;wreg free
   513   001A2C  6E69               	movwf	_ret^0,c
   514                           
   515                           ;application.c: 71:     ret = led_initialize(&led2);
   516   001A2E  0E2F               	movlw	low _led2
   517   001A30  0100               	movlb	0	; () banked
   518   001A32  6F86               	movwf	led_initialize@led& (0+255),b
   519   001A34  0E00               	movlw	high _led2
   520   001A36  6F87               	movwf	(led_initialize@led+1)& (0+255),b
   521   001A38  EC3B  F00B         	call	_led_initialize	;wreg free
   522   001A3C  6E69               	movwf	_ret^0,c
   523   001A3E                     
   524                           ;application.c: 74:     application_initialize();
   525   001A3E  EC7B  F00D         	call	_application_initialize	;wreg free
   526   001A42                     l729:
   527   001A42  EF21  F00D         	goto	l729
   528   001A46  EF07  F000         	goto	start
   529   001A4A                     __end_of_main:
   530                           	callstack 0
   531                           
   532 ;; *************** function _led_initialize *****************
   533 ;; Defined at:
   534 ;;		line 19 in file "ECU_Layer/LED/ecu_led.c"
   535 ;; Parameters:    Size  Location     Type
   536 ;;  led             2    6[BANK0 ] PTR const struct .
   537 ;;		 -> led2(2), led1(2), 
   538 ;; Auto vars:     Size  Location     Type
   539 ;;  led_pin         1   10[BANK0 ] struct .
   540 ;;  ret             1    9[BANK0 ] unsigned char 
   541 ;; Return value:  Size  Location     Type
   542 ;;                  1    wreg      unsigned char 
   543 ;; Registers used:
   544 ;;		wreg, fsr2l, fsr2h, status,2, status,0, prodl, prodh, cstack
   545 ;; Tracked objects:
   546 ;;		On entry : 0/0
   547 ;;		On exit  : 0/0
   548 ;;		Unchanged: 0/0
   549 ;; Data sizes:     COMRAM   BANK0   BANK1   BANK2   BANK3   BANK4   BANK5   BANK6   BANK7   BANK8   BANK9  BANK10  BANK1
      +1  BANK12  BANK13  BANK14  BANK15
   550 ;;      Params:         0       2       0       0       0       0       0       0       0       0       0       0       
      +0       0       0       0       0
   551 ;;      Locals:         0       2       0       0       0       0       0       0       0       0       0       0       
      +0       0       0       0       0
   552 ;;      Temps:          0       1       0       0       0       0       0       0       0       0       0       0       
      +0       0       0       0       0
   553 ;;      Totals:         0       5       0       0       0       0       0       0       0       0       0       0       
      +0       0       0       0       0
   554 ;;Total ram usage:        5 bytes
   555 ;; Hardware stack levels used: 1
   556 ;; Hardware stack levels required when called: 6
   557 ;; This function calls:
   558 ;;		_gpio_pin_direction_initialize
   559 ;; This function is called by:
   560 ;;		_main
   561 ;; This function uses a non-reentrant model
   562 ;;
   563                           
   564                           	psect	text1
   565   001676                     __ptext1:
   566                           	callstack 0
   567   001676                     _led_initialize:
   568                           	callstack 24
   569   001676  0E01               	movlw	1
   570   001678  0100               	movlb	0	; () banked
   571   00167A  6F89               	movwf	led_initialize@ret& (0+255),b
   572   00167C                     
   573                           ; BSR set to: 0
   574   00167C  5186               	movf	led_initialize@led& (0+255),w,b
   575   00167E  1187               	iorwf	(led_initialize@led+1)& (0+255),w,b
   576   001680  A4D8               	btfss	status,2,c
   577   001682  EF45  F00B         	goto	u3161
   578   001686  EF47  F00B         	goto	u3160
   579   00168A                     u3161:
   580   00168A  EF4B  F00B         	goto	l231
   581   00168E                     u3160:
   582   00168E                     
   583                           ; BSR set to: 0
   584   00168E  0E00               	movlw	0
   585   001690  6F89               	movwf	led_initialize@ret& (0+255),b
   586   001692  EF7E  F00B         	goto	l3684
   587   001696                     l231:
   588                           
   589                           ; BSR set to: 0
   590   001696  C050  F08A         	movff	led_initialize@F3048,led_initialize@led_pin
   591   00169A                     
   592                           ; BSR set to: 0
   593   00169A  C086  FFD9         	movff	led_initialize@led,fsr2l
   594   00169E  C087  FFDA         	movff	led_initialize@led+1,fsr2h
   595   0016A2  50DF               	movf	223,w,c
   596   0016A4  0B0F               	andlw	15
   597   0016A6  6F88               	movwf	??_led_initialize& (0+255),b
   598   0016A8  518A               	movf	led_initialize@led_pin& (0+255),w,b
   599   0016AA  1988               	xorwf	??_led_initialize& (0+255),w,b
   600   0016AC  0BF8               	andlw	-8
   601   0016AE  1988               	xorwf	??_led_initialize& (0+255),w,b
   602   0016B0  6F8A               	movwf	led_initialize@led_pin& (0+255),b
   603   0016B2  C086  FFD9         	movff	led_initialize@led,fsr2l
   604   0016B6  C087  FFDA         	movff	led_initialize@led+1,fsr2h
   605   0016BA  38DF               	swapf	223,w,c
   606   0016BC  0B07               	andlw	7
   607   0016BE  6F88               	movwf	??_led_initialize& (0+255),b
   608   0016C0  4788               	rlncf	??_led_initialize& (0+255),f,b
   609   0016C2  4788               	rlncf	??_led_initialize& (0+255),f,b
   610   0016C4  4788               	rlncf	??_led_initialize& (0+255),f,b
   611   0016C6  518A               	movf	led_initialize@led_pin& (0+255),w,b
   612   0016C8  1988               	xorwf	??_led_initialize& (0+255),w,b
   613   0016CA  0BC7               	andlw	-57
   614   0016CC  1988               	xorwf	??_led_initialize& (0+255),w,b
   615   0016CE  6F8A               	movwf	led_initialize@led_pin& (0+255),b
   616   0016D0                     
   617                           ; BSR set to: 0
   618   0016D0  9D8A               	bcf	led_initialize@led_pin& (0+255),6,b
   619   0016D2  EE20 F001          	lfsr	2,1
   620   0016D6  5186               	movf	led_initialize@led& (0+255),w,b
   621   0016D8  26D9               	addwf	fsr2l,f,c
   622   0016DA  5187               	movf	(led_initialize@led+1)& (0+255),w,b
   623   0016DC  22DA               	addwfc	fsr2h,f,c
   624   0016DE  50DF               	movf	indf2,w,c
   625   0016E0  6F88               	movwf	??_led_initialize& (0+255),b
   626   0016E2  3388               	rrcf	??_led_initialize& (0+255),f,b
   627   0016E4  3388               	rrcf	??_led_initialize& (0+255),f,b
   628   0016E6  518A               	movf	led_initialize@led_pin& (0+255),w,b
   629   0016E8  1988               	xorwf	??_led_initialize& (0+255),w,b
   630   0016EA  0B7F               	andlw	-129
   631   0016EC  1988               	xorwf	??_led_initialize& (0+255),w,b
   632   0016EE  6F8A               	movwf	led_initialize@led_pin& (0+255),b
   633   0016F0                     
   634                           ; BSR set to: 0
   635   0016F0  0E8A               	movlw	low led_initialize@led_pin
   636   0016F2  6E66               	movwf	gpio_pin_direction_initialize@pin_config^0,c
   637   0016F4  0E00               	movlw	high led_initialize@led_pin
   638   0016F6  6E67               	movwf	(gpio_pin_direction_initialize@pin_config+1)^0,c
   639   0016F8  EC66  F009         	call	_gpio_pin_direction_initialize	;wreg free
   640   0016FC                     l3684:
   641   0016FC  0100               	movlb	0	; () banked
   642   0016FE  5189               	movf	led_initialize@ret& (0+255),w,b
   643   001700                     
   644                           ; BSR set to: 0
   645   001700  0012               	return		;funcret
   646   001702                     __end_of_led_initialize:
   647                           	callstack 0
   648                           
   649 ;; *************** function _interrupt_RBx_init *****************
   650 ;; Defined at:
   651 ;;		line 356 in file "MCAL_Layer/Interrupt/mcal_external_interrupt.c"
   652 ;; Parameters:    Size  Location     Type
   653 ;;  rb_obj          2    6[BANK0 ] PTR const struct .
   654 ;;		 -> obj_rb5(6), obj_rb4(6), 
   655 ;; Auto vars:     Size  Location     Type
   656 ;;  ret             1   10[BANK0 ] unsigned char 
   657 ;; Return value:  Size  Location     Type
   658 ;;                  1    wreg      unsigned char 
   659 ;; Registers used:
   660 ;;		wreg, fsr2l, fsr2h, status,2, status,0, prodl, prodh, cstack
   661 ;; Tracked objects:
   662 ;;		On entry : 0/0
   663 ;;		On exit  : 0/0
   664 ;;		Unchanged: 0/0
   665 ;; Data sizes:     COMRAM   BANK0   BANK1   BANK2   BANK3   BANK4   BANK5   BANK6   BANK7   BANK8   BANK9  BANK10  BANK1
      +1  BANK12  BANK13  BANK14  BANK15
   666 ;;      Params:         0       2       0       0       0       0       0       0       0       0       0       0       
      +0       0       0       0       0
   667 ;;      Locals:         0       1       0       0       0       0       0       0       0       0       0       0       
      +0       0       0       0       0
   668 ;;      Temps:          0       2       0       0       0       0       0       0       0       0       0       0       
      +0       0       0       0       0
   669 ;;      Totals:         0       5       0       0       0       0       0       0       0       0       0       0       
      +0       0       0       0       0
   670 ;;Total ram usage:        5 bytes
   671 ;; Hardware stack levels used: 1
   672 ;; Hardware stack levels required when called: 6
   673 ;; This function calls:
   674 ;;		_gpio_pin_direction_initialize
   675 ;; This function is called by:
   676 ;;		_main
   677 ;; This function uses a non-reentrant model
   678 ;;
   679                           
   680                           	psect	text2
   681   001416                     __ptext2:
   682                           	callstack 0
   683   001416                     _interrupt_RBx_init:
   684                           	callstack 24
   685   001416                     
   686                           ;MCAL_Layer/Interrupt/mcal_external_interrupt.c: 358:     if(rb_obj == ((void*)0)){
   687   001416  0100               	movlb	0	; () banked
   688   001418  5186               	movf	interrupt_RBx_init@rb_obj& (0+255),w,b
   689   00141A  1187               	iorwf	(interrupt_RBx_init@rb_obj+1)& (0+255),w,b
   690   00141C  A4D8               	btfss	status,2,c
   691   00141E  EF13  F00A         	goto	u3171
   692   001422  EF15  F00A         	goto	u3170
   693   001426                     u3171:
   694   001426  EF19  F00A         	goto	l596
   695   00142A                     u3170:
   696   00142A                     
   697                           ; BSR set to: 0
   698                           ;MCAL_Layer/Interrupt/mcal_external_interrupt.c: 359:         ret = (std_ReturnType)0x00
      +                          ;
   699   00142A  0E00               	movlw	0
   700   00142C  6F8A               	movwf	interrupt_RBx_init@ret& (0+255),b
   701                           
   702                           ;MCAL_Layer/Interrupt/mcal_external_interrupt.c: 360:     }
   703   00142E  EFA3  F00A         	goto	l597
   704   001432                     l596:
   705                           
   706                           ; BSR set to: 0
   707                           ;MCAL_Layer/Interrupt/mcal_external_interrupt.c: 363:         (INTCONbits.RBIE = 0);
   708   001432  96F2               	bcf	242,3,c	;volatile
   709                           
   710                           ;MCAL_Layer/Interrupt/mcal_external_interrupt.c: 365:         (INTCONbits.RBIF = 0);
   711   001434  90F2               	bcf	242,0,c	;volatile
   712                           
   713                           ;MCAL_Layer/Interrupt/mcal_external_interrupt.c: 377:                 (INTCONbits.GIE = 
      +                          1);
   714   001436  8EF2               	bsf	242,7,c	;volatile
   715                           
   716                           ;MCAL_Layer/Interrupt/mcal_external_interrupt.c: 378:                 (INTCONbits.PEIE =
      +                           1);
   717   001438  8CF2               	bsf	242,6,c	;volatile
   718   00143A                     
   719                           ; BSR set to: 0
   720   00143A  0E04               	movlw	4
   721   00143C  2586               	addwf	interrupt_RBx_init@rb_obj& (0+255),w,b
   722   00143E  6E66               	movwf	gpio_pin_direction_initialize@pin_config^0,c
   723   001440  0E00               	movlw	0
   724   001442  2187               	addwfc	(interrupt_RBx_init@rb_obj+1)& (0+255),w,b
   725   001444  6E67               	movwf	(gpio_pin_direction_initialize@pin_config+1)^0,c
   726   001446  EC66  F009         	call	_gpio_pin_direction_initialize	;wreg free
   727                           
   728                           ;MCAL_Layer/Interrupt/mcal_external_interrupt.c: 383:         switch(rb_obj->pin.pin){
   729   00144A  EF79  F00A         	goto	l3714
   730   00144E                     l3696:
   731                           
   732                           ; BSR set to: 0
   733                           ;MCAL_Layer/Interrupt/mcal_external_interrupt.c: 385:                 RB4_InterruptHandl
      +                          er_HIGH = rb_obj->INTERRUPT_HANDLER_HIGH;
   734   00144E  C086  FFD9         	movff	interrupt_RBx_init@rb_obj,fsr2l
   735   001452  C087  FFDA         	movff	interrupt_RBx_init@rb_obj+1,fsr2h
   736   001456  CFDE F041          	movff	postinc2,_RB4_InterruptHandler_HIGH
   737   00145A  CFDD F042          	movff	postdec2,_RB4_InterruptHandler_HIGH+1
   738   00145E                     
   739                           ; BSR set to: 0
   740                           ;MCAL_Layer/Interrupt/mcal_external_interrupt.c: 386:                 RB4_InterruptHandl
      +                          er_LOW = rb_obj->INTERRUPT_HANDLER_LOW;
   741   00145E  EE20 F002          	lfsr	2,2
   742   001462  5186               	movf	interrupt_RBx_init@rb_obj& (0+255),w,b
   743   001464  26D9               	addwf	fsr2l,f,c
   744   001466  5187               	movf	(interrupt_RBx_init@rb_obj+1)& (0+255),w,b
   745   001468  22DA               	addwfc	fsr2h,f,c
   746   00146A  CFDE F03F          	movff	postinc2,_RB4_InterruptHandler_LOW
   747   00146E  CFDD F040          	movff	postdec2,_RB4_InterruptHandler_LOW+1
   748                           
   749                           ;MCAL_Layer/Interrupt/mcal_external_interrupt.c: 387:                 break;
   750   001472  EFA0  F00A         	goto	l600
   751   001476                     l3700:
   752                           
   753                           ; BSR set to: 0
   754                           ;MCAL_Layer/Interrupt/mcal_external_interrupt.c: 389:                 RB5_InterruptHandl
      +                          er_HIGH = rb_obj->INTERRUPT_HANDLER_HIGH;
   755   001476  C086  FFD9         	movff	interrupt_RBx_init@rb_obj,fsr2l
   756   00147A  C087  FFDA         	movff	interrupt_RBx_init@rb_obj+1,fsr2h
   757   00147E  CFDE F03D          	movff	postinc2,_RB5_InterruptHandler_HIGH
   758   001482  CFDD F03E          	movff	postdec2,_RB5_InterruptHandler_HIGH+1
   759   001486                     
   760                           ; BSR set to: 0
   761                           ;MCAL_Layer/Interrupt/mcal_external_interrupt.c: 390:                 RB5_InterruptHandl
      +                          er_LOW = rb_obj->INTERRUPT_HANDLER_LOW;
   762   001486  EE20 F002          	lfsr	2,2
   763   00148A  5186               	movf	interrupt_RBx_init@rb_obj& (0+255),w,b
   764   00148C  26D9               	addwf	fsr2l,f,c
   765   00148E  5187               	movf	(interrupt_RBx_init@rb_obj+1)& (0+255),w,b
   766   001490  22DA               	addwfc	fsr2h,f,c
   767   001492  CFDE F03B          	movff	postinc2,_RB5_InterruptHandler_LOW
   768   001496  CFDD F03C          	movff	postdec2,_RB5_InterruptHandler_LOW+1
   769                           
   770                           ;MCAL_Layer/Interrupt/mcal_external_interrupt.c: 391:                 break;
   771   00149A  EFA0  F00A         	goto	l600
   772   00149E                     l3704:
   773                           
   774                           ; BSR set to: 0
   775                           ;MCAL_Layer/Interrupt/mcal_external_interrupt.c: 393:                 RB6_InterruptHandl
      +                          er_HIGH = rb_obj->INTERRUPT_HANDLER_HIGH;
   776   00149E  C086  FFD9         	movff	interrupt_RBx_init@rb_obj,fsr2l
   777   0014A2  C087  FFDA         	movff	interrupt_RBx_init@rb_obj+1,fsr2h
   778   0014A6  CFDE F039          	movff	postinc2,_RB6_InterruptHandler_HIGH
   779   0014AA  CFDD F03A          	movff	postdec2,_RB6_InterruptHandler_HIGH+1
   780   0014AE                     
   781                           ; BSR set to: 0
   782                           ;MCAL_Layer/Interrupt/mcal_external_interrupt.c: 394:                 RB6_InterruptHandl
      +                          er_LOW = rb_obj->INTERRUPT_HANDLER_LOW;
   783   0014AE  EE20 F002          	lfsr	2,2
   784   0014B2  5186               	movf	interrupt_RBx_init@rb_obj& (0+255),w,b
   785   0014B4  26D9               	addwf	fsr2l,f,c
   786   0014B6  5187               	movf	(interrupt_RBx_init@rb_obj+1)& (0+255),w,b
   787   0014B8  22DA               	addwfc	fsr2h,f,c
   788   0014BA  CFDE F037          	movff	postinc2,_RB6_InterruptHandler_LOW
   789   0014BE  CFDD F038          	movff	postdec2,_RB6_InterruptHandler_LOW+1
   790                           
   791                           ;MCAL_Layer/Interrupt/mcal_external_interrupt.c: 395:                 break;
   792   0014C2  EFA0  F00A         	goto	l600
   793   0014C6                     l3708:
   794                           
   795                           ; BSR set to: 0
   796                           ;MCAL_Layer/Interrupt/mcal_external_interrupt.c: 397:                 RB7_InterruptHandl
      +                          er_HIGH = rb_obj->INTERRUPT_HANDLER_HIGH;
   797   0014C6  C086  FFD9         	movff	interrupt_RBx_init@rb_obj,fsr2l
   798   0014CA  C087  FFDA         	movff	interrupt_RBx_init@rb_obj+1,fsr2h
   799   0014CE  CFDE F035          	movff	postinc2,_RB7_InterruptHandler_HIGH
   800   0014D2  CFDD F036          	movff	postdec2,_RB7_InterruptHandler_HIGH+1
   801   0014D6                     
   802                           ; BSR set to: 0
   803                           ;MCAL_Layer/Interrupt/mcal_external_interrupt.c: 398:                 RB7_InterruptHandl
      +                          er_LOW = rb_obj->INTERRUPT_HANDLER_LOW;
   804   0014D6  EE20 F002          	lfsr	2,2
   805   0014DA  5186               	movf	interrupt_RBx_init@rb_obj& (0+255),w,b
   806   0014DC  26D9               	addwf	fsr2l,f,c
   807   0014DE  5187               	movf	(interrupt_RBx_init@rb_obj+1)& (0+255),w,b
   808   0014E0  22DA               	addwfc	fsr2h,f,c
   809   0014E2  CFDE F033          	movff	postinc2,_RB7_InterruptHandler_LOW
   810   0014E6  CFDD F034          	movff	postdec2,_RB7_InterruptHandler_LOW+1
   811                           
   812                           ;MCAL_Layer/Interrupt/mcal_external_interrupt.c: 399:                 break;
   813   0014EA  EFA0  F00A         	goto	l600
   814   0014EE                     l3712:
   815                           
   816                           ; BSR set to: 0
   817                           ;MCAL_Layer/Interrupt/mcal_external_interrupt.c: 402:         }
   818   0014EE  EFA0  F00A         	goto	l600
   819   0014F2                     l3714:
   820   0014F2  0100               	movlb	0	; () banked
   821   0014F4  EE20 F004          	lfsr	2,4
   822   0014F8  5186               	movf	interrupt_RBx_init@rb_obj& (0+255),w,b
   823   0014FA  26D9               	addwf	fsr2l,f,c
   824   0014FC  5187               	movf	(interrupt_RBx_init@rb_obj+1)& (0+255),w,b
   825   0014FE  22DA               	addwfc	fsr2h,f,c
   826   001500  30DF               	rrcf	223,w,c
   827   001502  32E8               	rrcf	wreg,f,c
   828   001504  32E8               	rrcf	wreg,f,c
   829   001506  0B07               	andlw	7
   830   001508  6F88               	movwf	??_interrupt_RBx_init& (0+255),b
   831   00150A  6B89               	clrf	(??_interrupt_RBx_init+1)& (0+255),b
   832                           
   833                           ; Switch on 2 bytes has been partitioned into a top level switch of size 1, and 1 sub-sw
      +                          itches
   834                           ; Switch size 1, requested type "simple"
   835                           ; Number of cases is 1, Range of values is 0 to 0
   836                           ; switch strategies available:
   837                           ; Name         Instructions Cycles
   838                           ; simple_byte            4     3 (average)
   839                           ;	Chosen strategy is simple_byte
   840   00150C  5189               	movf	(??_interrupt_RBx_init+1)& (0+255),w,b
   841   00150E  0A00               	xorlw	0	; case 0
   842   001510  B4D8               	btfsc	status,2,c
   843   001512  EF8D  F00A         	goto	l4004
   844   001516  EF77  F00A         	goto	l3712
   845   00151A                     l4004:
   846                           
   847                           ; BSR set to: 0
   848                           ; Switch size 1, requested type "simple"
   849                           ; Number of cases is 4, Range of values is 4 to 7
   850                           ; switch strategies available:
   851                           ; Name         Instructions Cycles
   852                           ; simple_byte           13     7 (average)
   853                           ;	Chosen strategy is simple_byte
   854   00151A  5188               	movf	??_interrupt_RBx_init& (0+255),w,b
   855   00151C  0A04               	xorlw	4	; case 4
   856   00151E  B4D8               	btfsc	status,2,c
   857   001520  EF27  F00A         	goto	l3696
   858   001524  0A01               	xorlw	1	; case 5
   859   001526  B4D8               	btfsc	status,2,c
   860   001528  EF3B  F00A         	goto	l3700
   861   00152C  0A03               	xorlw	3	; case 6
   862   00152E  B4D8               	btfsc	status,2,c
   863   001530  EF4F  F00A         	goto	l3704
   864   001534  0A01               	xorlw	1	; case 7
   865   001536  B4D8               	btfsc	status,2,c
   866   001538  EF63  F00A         	goto	l3708
   867   00153C  EF77  F00A         	goto	l3712
   868   001540                     l600:
   869                           
   870                           ; BSR set to: 0
   871                           ;MCAL_Layer/Interrupt/mcal_external_interrupt.c: 404:         (INTCONbits.RBIE = 1);
   872   001540  86F2               	bsf	242,3,c	;volatile
   873   001542                     
   874                           ; BSR set to: 0
   875                           ;MCAL_Layer/Interrupt/mcal_external_interrupt.c: 405:         ret = (std_ReturnType)0x01
      +                          ;
   876   001542  0E01               	movlw	1
   877   001544  6F8A               	movwf	interrupt_RBx_init@ret& (0+255),b
   878   001546                     l597:
   879                           
   880                           ; BSR set to: 0
   881                           ;MCAL_Layer/Interrupt/mcal_external_interrupt.c: 407:     return ret;
   882   001546  518A               	movf	interrupt_RBx_init@ret& (0+255),w,b
   883   001548                     
   884                           ; BSR set to: 0
   885   001548  0012               	return		;funcret
   886   00154A                     __end_of_interrupt_RBx_init:
   887                           	callstack 0
   888                           
   889 ;; *************** function _gpio_pin_direction_initialize *****************
   890 ;; Defined at:
   891 ;;		line 22 in file "MCAL_Layer/GPIO/hal_gpio.c"
   892 ;; Parameters:    Size  Location     Type
   893 ;;  pin_config      2   21[COMRAM] PTR const struct .
   894 ;;		 -> obj_rb5(6), obj_rb4(6), relay_initialize@pin_obj(1), led_initialize@led_pin(1), 
   895 ;; Auto vars:     Size  Location     Type
   896 ;;  ret             1   23[COMRAM] unsigned char 
   897 ;; Return value:  Size  Location     Type
   898 ;;                  1    wreg      unsigned char 
   899 ;; Registers used:
   900 ;;		wreg, fsr2l, fsr2h, status,2, status,0, prodl, prodh
   901 ;; Tracked objects:
   902 ;;		On entry : 0/0
   903 ;;		On exit  : 0/0
   904 ;;		Unchanged: 0/0
   905 ;; Data sizes:     COMRAM   BANK0   BANK1   BANK2   BANK3   BANK4   BANK5   BANK6   BANK7   BANK8   BANK9  BANK10  BANK1
      +1  BANK12  BANK13  BANK14  BANK15
   906 ;;      Params:         2       0       0       0       0       0       0       0       0       0       0       0       
      +0       0       0       0       0
   907 ;;      Locals:         1       0       0       0       0       0       0       0       0       0       0       0       
      +0       0       0       0       0
   908 ;;      Temps:          0       6       0       0       0       0       0       0       0       0       0       0       
      +0       0       0       0       0
   909 ;;      Totals:         3       6       0       0       0       0       0       0       0       0       0       0       
      +0       0       0       0       0
   910 ;;Total ram usage:        9 bytes
   911 ;; Hardware stack levels used: 1
   912 ;; Hardware stack levels required when called: 5
   913 ;; This function calls:
   914 ;;		Nothing
   915 ;; This function is called by:
   916 ;;		_led_initialize
   917 ;;		_interrupt_RBx_init
   918 ;;		_button_initialize
   919 ;;		_keypad_initialize
   920 ;;		_gpio_pin_initialize
   921 ;;		_Interrupt_INTx_pin_init
   922 ;; This function uses a non-reentrant model
   923 ;;
   924                           
   925                           	psect	text3
   926   0012CC                     __ptext3:
   927                           	callstack 0
   928   0012CC                     _gpio_pin_direction_initialize:
   929                           	callstack 24
   930   0012CC                     
   931                           ;MCAL_Layer/GPIO/hal_gpio.c: 23:     std_ReturnType ret = (std_ReturnType)0x01;
   932   0012CC  0E01               	movlw	1
   933   0012CE  6E68               	movwf	gpio_pin_direction_initialize@ret^0,c
   934   0012D0                     
   935                           ;MCAL_Layer/GPIO/hal_gpio.c: 25:     if(pin_config == ((void*)0) || pin_config->pin > 8 
      +                          -1){
   936   0012D0  5066               	movf	gpio_pin_direction_initialize@pin_config^0,w,c
   937   0012D2  1067               	iorwf	(gpio_pin_direction_initialize@pin_config+1)^0,w,c
   938   0012D4  B4D8               	btfsc	status,2,c
   939   0012D6  EF6F  F009         	goto	u3101
   940   0012DA  EF71  F009         	goto	u3100
   941   0012DE                     u3101:
   942   0012DE  EF83  F009         	goto	l3654
   943   0012E2                     u3100:
   944   0012E2  C066  FFD9         	movff	gpio_pin_direction_initialize@pin_config,fsr2l
   945   0012E6  C067  FFDA         	movff	gpio_pin_direction_initialize@pin_config+1,fsr2h
   946   0012EA  30DF               	rrcf	223,w,c
   947   0012EC  32E8               	rrcf	wreg,f,c
   948   0012EE  32E8               	rrcf	wreg,f,c
   949   0012F0  0B07               	andlw	7
   950   0012F2  0100               	movlb	0	; () banked
   951   0012F4  6F80               	movwf	??_gpio_pin_direction_initialize& (0+255),b
   952   0012F6  0E07               	movlw	7
   953   0012F8  6580               	cpfsgt	??_gpio_pin_direction_initialize& (0+255),b
   954   0012FA  EF81  F009         	goto	u3111
   955   0012FE  EF83  F009         	goto	u3110
   956   001302                     u3111:
   957   001302  EFE8  F009         	goto	l3662
   958   001306                     u3110:
   959   001306                     l3654:
   960                           
   961                           ;MCAL_Layer/GPIO/hal_gpio.c: 26:         ret = (std_ReturnType)0x00;
   962   001306  0E00               	movlw	0
   963   001308  6E68               	movwf	gpio_pin_direction_initialize@ret^0,c
   964                           
   965                           ;MCAL_Layer/GPIO/hal_gpio.c: 27:     }
   966   00130A  EF09  F00A         	goto	l3664
   967   00130E                     l3656:
   968                           
   969                           ; BSR set to: 0
   970                           ;MCAL_Layer/GPIO/hal_gpio.c: 31:                 (*tris_register[pin_config->port] &= ~(
      +                          (uint8)1 << pin_config->pin));
   971   00130E  C066  FFD9         	movff	gpio_pin_direction_initialize@pin_config,fsr2l
   972   001312  C067  FFDA         	movff	gpio_pin_direction_initialize@pin_config+1,fsr2h
   973   001316  30DF               	rrcf	223,w,c
   974   001318  32E8               	rrcf	wreg,f,c
   975   00131A  32E8               	rrcf	wreg,f,c
   976   00131C  0B07               	andlw	7
   977   00131E  6F80               	movwf	??_gpio_pin_direction_initialize& (0+255),b
   978   001320  0E01               	movlw	1
   979   001322  6F81               	movwf	(??_gpio_pin_direction_initialize+1)& (0+255),b
   980   001324  2B80               	incf	??_gpio_pin_direction_initialize& (0+255),f,b
   981   001326  EF97  F009         	goto	u3124
   982   00132A                     u3125:
   983   00132A  90D8               	bcf	status,0,c
   984   00132C  3781               	rlcf	(??_gpio_pin_direction_initialize+1)& (0+255),f,b
   985   00132E                     u3124:
   986   00132E  2F80               	decfsz	??_gpio_pin_direction_initialize& (0+255),f,b
   987   001330  EF95  F009         	goto	u3125
   988   001334  0100               	movlb	0	; () banked
   989   001336  5181               	movf	(??_gpio_pin_direction_initialize+1)& (0+255),w,b
   990   001338  0AFF               	xorlw	255
   991   00133A  6F82               	movwf	(??_gpio_pin_direction_initialize+2)& (0+255),b
   992   00133C  C066  FFD9         	movff	gpio_pin_direction_initialize@pin_config,fsr2l
   993   001340  C067  FFDA         	movff	gpio_pin_direction_initialize@pin_config+1,fsr2h
   994   001344  50DF               	movf	223,w,c
   995   001346  0B07               	andlw	7
   996   001348  6F83               	movwf	(??_gpio_pin_direction_initialize+3)& (0+255),b
   997   00134A  5183               	movf	(??_gpio_pin_direction_initialize+3)& (0+255),w,b
   998   00134C  0D02               	mullw	2
   999   00134E  0E15               	movlw	low _tris_register
  1000   001350  24F3               	addwf	243,w,c
  1001   001352  6ED9               	movwf	fsr2l,c
  1002   001354  0E00               	movlw	high _tris_register
  1003   001356  20F4               	addwfc	prodh,w,c
  1004   001358  6EDA               	movwf	fsr2h,c
  1005   00135A  CFDE F084          	movff	postinc2,??_gpio_pin_direction_initialize+4
  1006   00135E  CFDD F085          	movff	postdec2,??_gpio_pin_direction_initialize+5
  1007   001362  C084  FFD9         	movff	??_gpio_pin_direction_initialize+4,fsr2l
  1008   001366  C085  FFDA         	movff	??_gpio_pin_direction_initialize+5,fsr2h
  1009   00136A  5182               	movf	(??_gpio_pin_direction_initialize+2)& (0+255),w,b
  1010   00136C  16DF               	andwf	indf2,f,c
  1011                           
  1012                           ;MCAL_Layer/GPIO/hal_gpio.c: 32:                 break;
  1013   00136E  EF09  F00A         	goto	l3664
  1014   001372                     l3658:
  1015                           
  1016                           ; BSR set to: 0
  1017                           ;MCAL_Layer/GPIO/hal_gpio.c: 34:                 (*tris_register[pin_config->port] |= ((
      +                          uint8)1 << pin_config->pin));
  1018   001372  C066  FFD9         	movff	gpio_pin_direction_initialize@pin_config,fsr2l
  1019   001376  C067  FFDA         	movff	gpio_pin_direction_initialize@pin_config+1,fsr2h
  1020   00137A  30DF               	rrcf	223,w,c
  1021   00137C  32E8               	rrcf	wreg,f,c
  1022   00137E  32E8               	rrcf	wreg,f,c
  1023   001380  0B07               	andlw	7
  1024   001382  6F80               	movwf	??_gpio_pin_direction_initialize& (0+255),b
  1025   001384  0E01               	movlw	1
  1026   001386  6F81               	movwf	(??_gpio_pin_direction_initialize+1)& (0+255),b
  1027   001388  2B80               	incf	??_gpio_pin_direction_initialize& (0+255),f,b
  1028   00138A  EFC9  F009         	goto	u3134
  1029   00138E                     u3135:
  1030   00138E  90D8               	bcf	status,0,c
  1031   001390  3781               	rlcf	(??_gpio_pin_direction_initialize+1)& (0+255),f,b
  1032   001392                     u3134:
  1033   001392  2F80               	decfsz	??_gpio_pin_direction_initialize& (0+255),f,b
  1034   001394  EFC7  F009         	goto	u3135
  1035   001398  C066  FFD9         	movff	gpio_pin_direction_initialize@pin_config,fsr2l
  1036   00139C  C067  FFDA         	movff	gpio_pin_direction_initialize@pin_config+1,fsr2h
  1037   0013A0  50DF               	movf	223,w,c
  1038   0013A2  0B07               	andlw	7
  1039   0013A4  0100               	movlb	0	; () banked
  1040   0013A6  6F82               	movwf	(??_gpio_pin_direction_initialize+2)& (0+255),b
  1041   0013A8  5182               	movf	(??_gpio_pin_direction_initialize+2)& (0+255),w,b
  1042   0013AA  0D02               	mullw	2
  1043   0013AC  0E15               	movlw	low _tris_register
  1044   0013AE  24F3               	addwf	243,w,c
  1045   0013B0  6ED9               	movwf	fsr2l,c
  1046   0013B2  0E00               	movlw	high _tris_register
  1047   0013B4  20F4               	addwfc	prodh,w,c
  1048   0013B6  6EDA               	movwf	fsr2h,c
  1049   0013B8  CFDE F083          	movff	postinc2,??_gpio_pin_direction_initialize+3
  1050   0013BC  CFDD F084          	movff	postdec2,??_gpio_pin_direction_initialize+4
  1051   0013C0  C083  FFD9         	movff	??_gpio_pin_direction_initialize+3,fsr2l
  1052   0013C4  C084  FFDA         	movff	??_gpio_pin_direction_initialize+4,fsr2h
  1053   0013C8  5181               	movf	(??_gpio_pin_direction_initialize+1)& (0+255),w,b
  1054   0013CA  12DF               	iorwf	indf2,f,c
  1055                           
  1056                           ;MCAL_Layer/GPIO/hal_gpio.c: 35:                 break;
  1057   0013CC  EF09  F00A         	goto	l3664
  1058   0013D0                     l3662:
  1059                           
  1060                           ; BSR set to: 0
  1061   0013D0  C066  FFD9         	movff	gpio_pin_direction_initialize@pin_config,fsr2l
  1062   0013D4  C067  FFDA         	movff	gpio_pin_direction_initialize@pin_config+1,fsr2h
  1063   0013D8  BCDF               	btfsc	indf2,6,c
  1064   0013DA  EFF1  F009         	goto	u3141
  1065   0013DE  EFF4  F009         	goto	u3140
  1066   0013E2                     u3141:
  1067   0013E2  0E01               	movlw	1
  1068   0013E4  EFF5  F009         	goto	u3150
  1069   0013E8                     u3140:
  1070   0013E8  0E00               	movlw	0
  1071   0013EA                     u3150:
  1072   0013EA  6F80               	movwf	??_gpio_pin_direction_initialize& (0+255),b
  1073   0013EC  6B81               	clrf	(??_gpio_pin_direction_initialize+1)& (0+255),b
  1074                           
  1075                           ; Switch on 2 bytes has been partitioned into a top level switch of size 1, and 1 sub-sw
      +                          itches
  1076                           ; Switch size 1, requested type "simple"
  1077                           ; Number of cases is 1, Range of values is 0 to 0
  1078                           ; switch strategies available:
  1079                           ; Name         Instructions Cycles
  1080                           ; simple_byte            4     3 (average)
  1081                           ;	Chosen strategy is simple_byte
  1082   0013EE  5181               	movf	(??_gpio_pin_direction_initialize+1)& (0+255),w,b
  1083   0013F0  0A00               	xorlw	0	; case 0
  1084   0013F2  B4D8               	btfsc	status,2,c
  1085   0013F4  EFFE  F009         	goto	l4006
  1086   0013F8  EF83  F009         	goto	l3654
  1087   0013FC                     l4006:
  1088                           
  1089                           ; BSR set to: 0
  1090                           ; Switch size 1, requested type "simple"
  1091                           ; Number of cases is 2, Range of values is 0 to 1
  1092                           ; switch strategies available:
  1093                           ; Name         Instructions Cycles
  1094                           ; simple_byte            7     4 (average)
  1095                           ;	Chosen strategy is simple_byte
  1096   0013FC  5180               	movf	??_gpio_pin_direction_initialize& (0+255),w,b
  1097   0013FE  0A00               	xorlw	0	; case 0
  1098   001400  B4D8               	btfsc	status,2,c
  1099   001402  EF87  F009         	goto	l3656
  1100   001406  0A01               	xorlw	1	; case 1
  1101   001408  B4D8               	btfsc	status,2,c
  1102   00140A  EFB9  F009         	goto	l3658
  1103   00140E  EF83  F009         	goto	l3654
  1104   001412                     l3664:
  1105                           
  1106                           ;MCAL_Layer/GPIO/hal_gpio.c: 39:     return ret;
  1107   001412  5068               	movf	gpio_pin_direction_initialize@ret^0,w,c
  1108   001414  0012               	return		;funcret
  1109   001416                     __end_of_gpio_pin_direction_initialize:
  1110                           	callstack 0
  1111                           
  1112 ;; *************** function _application_initialize *****************
  1113 ;; Defined at:
  1114 ;;		line 84 in file "application.c"
  1115 ;; Parameters:    Size  Location     Type
  1116 ;;		None
  1117 ;; Auto vars:     Size  Location     Type
  1118 ;;		None
  1119 ;; Return value:  Size  Location     Type
  1120 ;;                  1    wreg      void 
  1121 ;; Registers used:
  1122 ;;		None
  1123 ;; Tracked objects:
  1124 ;;		On entry : 0/0
  1125 ;;		On exit  : 0/0
  1126 ;;		Unchanged: 0/0
  1127 ;; Data sizes:     COMRAM   BANK0   BANK1   BANK2   BANK3   BANK4   BANK5   BANK6   BANK7   BANK8   BANK9  BANK10  BANK1
      +1  BANK12  BANK13  BANK14  BANK15
  1128 ;;      Params:         0       0       0       0       0       0       0       0       0       0       0       0       
      +0       0       0       0       0
  1129 ;;      Locals:         0       0       0       0       0       0       0       0       0       0       0       0       
      +0       0       0       0       0
  1130 ;;      Temps:          0       0       0       0       0       0       0       0       0       0       0       0       
      +0       0       0       0       0
  1131 ;;      Totals:         0       0       0       0       0       0       0       0       0       0       0       0       
      +0       0       0       0       0
  1132 ;;Total ram usage:        0 bytes
  1133 ;; Hardware stack levels used: 1
  1134 ;; Hardware stack levels required when called: 5
  1135 ;; This function calls:
  1136 ;;		Nothing
  1137 ;; This function is called by:
  1138 ;;		_main
  1139 ;; This function uses a non-reentrant model
  1140 ;;
  1141                           
  1142                           	psect	text4
  1143   001AF6                     __ptext4:
  1144                           	callstack 0
  1145   001AF6                     _application_initialize:
  1146                           	callstack 25
  1147   001AF6  0012               	return		;funcret
  1148   001AF8                     __end_of_application_initialize:
  1149                           	callstack 0
  1150                           
  1151 ;; *************** function _InterruptNoPriority *****************
  1152 ;; Defined at:
  1153 ;;		line 35 in file "MCAL_Layer/Interrupt/mcal_interrupt_manager.c"
  1154 ;; Parameters:    Size  Location     Type
  1155 ;;		None
  1156 ;; Auto vars:     Size  Location     Type
  1157 ;;		None
  1158 ;; Return value:  Size  Location     Type
  1159 ;;                  1    wreg      void 
  1160 ;; Registers used:
  1161 ;;		wreg, fsr2l, fsr2h, status,2, status,0, pcl, pclath, pclatu, tosl, prodl, prodh, cstack
  1162 ;; Tracked objects:
  1163 ;;		On entry : 0/0
  1164 ;;		On exit  : 0/0
  1165 ;;		Unchanged: 0/0
  1166 ;; Data sizes:     COMRAM   BANK0   BANK1   BANK2   BANK3   BANK4   BANK5   BANK6   BANK7   BANK8   BANK9  BANK10  BANK1
      +1  BANK12  BANK13  BANK14  BANK15
  1167 ;;      Params:         0       0       0       0       0       0       0       0       0       0       0       0       
      +0       0       0       0       0
  1168 ;;      Locals:         0       0       0       0       0       0       0       0       0       0       0       0       
      +0       0       0       0       0
  1169 ;;      Temps:          6       0       0       0       0       0       0       0       0       0       0       0       
      +0       0       0       0       0
  1170 ;;      Totals:         6       0       0       0       0       0       0       0       0       0       0       0       
      +0       0       0       0       0
  1171 ;;Total ram usage:        6 bytes
  1172 ;; Hardware stack levels used: 1
  1173 ;; Hardware stack levels required when called: 4
  1174 ;; This function calls:
  1175 ;;		_INT0_ISR
  1176 ;;		_INT1_ISR
  1177 ;;		_INT2_ISR
  1178 ;;		_RB4_ISR
  1179 ;;		_RB5_ISR
  1180 ;;		_RB6_ISR
  1181 ;;		_RB7_ISR
  1182 ;; This function is called by:
  1183 ;;		Interrupt level 2
  1184 ;; This function uses a non-reentrant model
  1185 ;;
  1186                           
  1187                           	psect	intcode
  1188   000008                     __pintcode:
  1189                           	callstack 0
  1190   000008                     _InterruptNoPriority:
  1191                           	callstack 24
  1192                           
  1193                           ;incstack = 0
  1194   000008  826A               	bsf	int$flags,1,c	;set compiler interrupt flag (level 2)
  1195   00000A  ED0B  F008         	call	int_func,f	;refresh shadow registers
  1196                           
  1197                           	psect	intcode_body
  1198   001016                     __pintcode_body:
  1199                           	callstack 24
  1200   001016                     int_func:
  1201                           	callstack 24
  1202   001016  0006               	pop		; remove dummy address from shadow register refresh
  1203   001018  CFFA F060          	movff	pclath,??_InterruptNoPriority
  1204   00101C  CFFB F061          	movff	pclatu,??_InterruptNoPriority+1
  1205   001020  CFD9 F062          	movff	fsr2l,??_InterruptNoPriority+2
  1206   001024  CFDA F063          	movff	fsr2h,??_InterruptNoPriority+3
  1207   001028  CFF3 F064          	movff	prodl,??_InterruptNoPriority+4
  1208   00102C  CFF4 F065          	movff	prodh,??_InterruptNoPriority+5
  1209   001030                     
  1210                           ;MCAL_Layer/Interrupt/mcal_interrupt_manager.c: 36:     if( (INTCONbits.INT0IE == 1) && 
      +                          (INTCONbits.INT0IF == 1) ){
  1211   001030  A8F2               	btfss	242,4,c	;volatile
  1212   001032  EF1D  F008         	goto	i2u272_41
  1213   001036  EF1F  F008         	goto	i2u272_40
  1214   00103A                     i2u272_41:
  1215   00103A  EF28  F008         	goto	i2l675
  1216   00103E                     i2u272_40:
  1217   00103E  A2F2               	btfss	242,1,c	;volatile
  1218   001040  EF24  F008         	goto	i2u273_41
  1219   001044  EF26  F008         	goto	i2u273_40
  1220   001048                     i2u273_41:
  1221   001048  EF28  F008         	goto	i2l675
  1222   00104C                     i2u273_40:
  1223   00104C                     
  1224                           ;MCAL_Layer/Interrupt/mcal_interrupt_manager.c: 37:         INT0_ISR();
  1225   00104C  EC79  F00D         	call	_INT0_ISR	;wreg free
  1226   001050                     i2l675:
  1227                           
  1228                           ;MCAL_Layer/Interrupt/mcal_interrupt_manager.c: 40:     if( (INTCON3bits.INT1IE == 1) &&
      +                           (INTCON3bits.INT1IF == 1) ){
  1229   001050  A6F0               	btfss	240,3,c	;volatile
  1230   001052  EF2D  F008         	goto	i2u274_41
  1231   001056  EF2F  F008         	goto	i2u274_40
  1232   00105A                     i2u274_41:
  1233   00105A  EF38  F008         	goto	i2l677
  1234   00105E                     i2u274_40:
  1235   00105E  A0F0               	btfss	240,0,c	;volatile
  1236   001060  EF34  F008         	goto	i2u275_41
  1237   001064  EF36  F008         	goto	i2u275_40
  1238   001068                     i2u275_41:
  1239   001068  EF38  F008         	goto	i2l677
  1240   00106C                     i2u275_40:
  1241   00106C                     
  1242                           ;MCAL_Layer/Interrupt/mcal_interrupt_manager.c: 41:         INT1_ISR();
  1243   00106C  EC77  F00D         	call	_INT1_ISR	;wreg free
  1244   001070                     i2l677:
  1245                           
  1246                           ;MCAL_Layer/Interrupt/mcal_interrupt_manager.c: 44:     if( (INTCON3bits.INT2IE == 1) &&
      +                           (INTCON3bits.INT2IF == 1) ){
  1247   001070  A8F0               	btfss	240,4,c	;volatile
  1248   001072  EF3D  F008         	goto	i2u276_41
  1249   001076  EF3F  F008         	goto	i2u276_40
  1250   00107A                     i2u276_41:
  1251   00107A  EF48  F008         	goto	i2l679
  1252   00107E                     i2u276_40:
  1253   00107E  A2F0               	btfss	240,1,c	;volatile
  1254   001080  EF44  F008         	goto	i2u277_41
  1255   001084  EF46  F008         	goto	i2u277_40
  1256   001088                     i2u277_41:
  1257   001088  EF48  F008         	goto	i2l679
  1258   00108C                     i2u277_40:
  1259   00108C                     
  1260                           ;MCAL_Layer/Interrupt/mcal_interrupt_manager.c: 45:         INT2_ISR();
  1261   00108C  EC75  F00D         	call	_INT2_ISR	;wreg free
  1262   001090                     i2l679:
  1263                           
  1264                           ;MCAL_Layer/Interrupt/mcal_interrupt_manager.c: 48:     if((INTCONbits.RBIE == 1 ) && (I
      +                          NTCONbits.RBIF == 1) && (PORTBbits.RB4 == GPIO_HIGH) && (RB4_FLAG == 1)){
  1265   001090  A6F2               	btfss	242,3,c	;volatile
  1266   001092  EF4D  F008         	goto	i2u278_41
  1267   001096  EF4F  F008         	goto	i2u278_40
  1268   00109A                     i2u278_41:
  1269   00109A  EF6A  F008         	goto	i2l681
  1270   00109E                     i2u278_40:
  1271   00109E  A0F2               	btfss	242,0,c	;volatile
  1272   0010A0  EF54  F008         	goto	i2u279_41
  1273   0010A4  EF56  F008         	goto	i2u279_40
  1274   0010A8                     i2u279_41:
  1275   0010A8  EF6A  F008         	goto	i2l681
  1276   0010AC                     i2u279_40:
  1277   0010AC  A881               	btfss	129,4,c	;volatile
  1278   0010AE  EF5B  F008         	goto	i2u280_41
  1279   0010B2  EF5D  F008         	goto	i2u280_40
  1280   0010B6                     i2u280_41:
  1281   0010B6  EF6A  F008         	goto	i2l681
  1282   0010BA                     i2u280_40:
  1283   0010BA  0422               	decf	_RB4_FLAG^0,w,c	;volatile
  1284   0010BC  A4D8               	btfss	status,2,c
  1285   0010BE  EF63  F008         	goto	i2u281_41
  1286   0010C2  EF65  F008         	goto	i2u281_40
  1287   0010C6                     i2u281_41:
  1288   0010C6  EF6A  F008         	goto	i2l681
  1289   0010CA                     i2u281_40:
  1290   0010CA                     
  1291                           ;MCAL_Layer/Interrupt/mcal_interrupt_manager.c: 49:         RB4_FLAG=0;
  1292   0010CA  0E00               	movlw	0
  1293   0010CC  6E22               	movwf	_RB4_FLAG^0,c	;volatile
  1294   0010CE                     
  1295                           ;MCAL_Layer/Interrupt/mcal_interrupt_manager.c: 50:         RB4_ISR(0);
  1296   0010CE  0E00               	movlw	0
  1297   0010D0  ECC0  F00C         	call	_RB4_ISR
  1298   0010D4                     i2l681:
  1299                           
  1300                           ;MCAL_Layer/Interrupt/mcal_interrupt_manager.c: 53:     if((INTCONbits.RBIE == 1 ) && (I
      +                          NTCONbits.RBIF == 1) && (PORTBbits.RB4 == GPIO_LOW) && (RB4_FLAG == 0)){
  1301   0010D4  A6F2               	btfss	242,3,c	;volatile
  1302   0010D6  EF6F  F008         	goto	i2u282_41
  1303   0010DA  EF71  F008         	goto	i2u282_40
  1304   0010DE                     i2u282_41:
  1305   0010DE  EF8C  F008         	goto	i2l3566
  1306   0010E2                     i2u282_40:
  1307   0010E2  A0F2               	btfss	242,0,c	;volatile
  1308   0010E4  EF76  F008         	goto	i2u283_41
  1309   0010E8  EF78  F008         	goto	i2u283_40
  1310   0010EC                     i2u283_41:
  1311   0010EC  EF8C  F008         	goto	i2l3566
  1312   0010F0                     i2u283_40:
  1313   0010F0  B881               	btfsc	129,4,c	;volatile
  1314   0010F2  EF7D  F008         	goto	i2u284_41
  1315   0010F6  EF7F  F008         	goto	i2u284_40
  1316   0010FA                     i2u284_41:
  1317   0010FA  EF8C  F008         	goto	i2l3566
  1318   0010FE                     i2u284_40:
  1319   0010FE  5022               	movf	_RB4_FLAG^0,w,c	;volatile
  1320   001100  A4D8               	btfss	status,2,c
  1321   001102  EF85  F008         	goto	i2u285_41
  1322   001106  EF87  F008         	goto	i2u285_40
  1323   00110A                     i2u285_41:
  1324   00110A  EF8C  F008         	goto	i2l3566
  1325   00110E                     i2u285_40:
  1326   00110E                     
  1327                           ;MCAL_Layer/Interrupt/mcal_interrupt_manager.c: 54:         RB4_FLAG=1;
  1328   00110E  0E01               	movlw	1
  1329   001110  6E22               	movwf	_RB4_FLAG^0,c	;volatile
  1330   001112                     
  1331                           ;MCAL_Layer/Interrupt/mcal_interrupt_manager.c: 55:         RB4_ISR(1);
  1332   001112  0E01               	movlw	1
  1333   001114  ECC0  F00C         	call	_RB4_ISR
  1334   001118                     i2l3566:
  1335                           
  1336                           ;MCAL_Layer/Interrupt/mcal_interrupt_manager.c: 57:     if((INTCONbits.RBIE == 1 ) && (I
      +                          NTCONbits.RBIF == 1) && (PORTBbits.RB5 == GPIO_HIGH) && (RB5_FLAG == 1)){
  1337   001118  A6F2               	btfss	242,3,c	;volatile
  1338   00111A  EF91  F008         	goto	i2u286_41
  1339   00111E  EF93  F008         	goto	i2u286_40
  1340   001122                     i2u286_41:
  1341   001122  EFAE  F008         	goto	i2l684
  1342   001126                     i2u286_40:
  1343   001126  A0F2               	btfss	242,0,c	;volatile
  1344   001128  EF98  F008         	goto	i2u287_41
  1345   00112C  EF9A  F008         	goto	i2u287_40
  1346   001130                     i2u287_41:
  1347   001130  EFAE  F008         	goto	i2l684
  1348   001134                     i2u287_40:
  1349   001134  AA81               	btfss	129,5,c	;volatile
  1350   001136  EF9F  F008         	goto	i2u288_41
  1351   00113A  EFA1  F008         	goto	i2u288_40
  1352   00113E                     i2u288_41:
  1353   00113E  EFAE  F008         	goto	i2l684
  1354   001142                     i2u288_40:
  1355   001142  0421               	decf	_RB5_FLAG^0,w,c	;volatile
  1356   001144  A4D8               	btfss	status,2,c
  1357   001146  EFA7  F008         	goto	i2u289_41
  1358   00114A  EFA9  F008         	goto	i2u289_40
  1359   00114E                     i2u289_41:
  1360   00114E  EFAE  F008         	goto	i2l684
  1361   001152                     i2u289_40:
  1362   001152                     
  1363                           ;MCAL_Layer/Interrupt/mcal_interrupt_manager.c: 58:         RB5_FLAG=0;
  1364   001152  0E00               	movlw	0
  1365   001154  6E21               	movwf	_RB5_FLAG^0,c	;volatile
  1366   001156                     
  1367                           ;MCAL_Layer/Interrupt/mcal_interrupt_manager.c: 59:         RB5_ISR(1);
  1368   001156  0E01               	movlw	1
  1369   001158  EC81  F00C         	call	_RB5_ISR
  1370   00115C                     i2l684:
  1371                           
  1372                           ;MCAL_Layer/Interrupt/mcal_interrupt_manager.c: 62:     if((INTCONbits.RBIE == 1 ) && (I
      +                          NTCONbits.RBIF == 1) && (PORTBbits.RB5 == GPIO_LOW) && (RB5_FLAG == 0)){
  1373   00115C  A6F2               	btfss	242,3,c	;volatile
  1374   00115E  EFB3  F008         	goto	i2u290_41
  1375   001162  EFB5  F008         	goto	i2u290_40
  1376   001166                     i2u290_41:
  1377   001166  EFD0  F008         	goto	i2l3588
  1378   00116A                     i2u290_40:
  1379   00116A  A0F2               	btfss	242,0,c	;volatile
  1380   00116C  EFBA  F008         	goto	i2u291_41
  1381   001170  EFBC  F008         	goto	i2u291_40
  1382   001174                     i2u291_41:
  1383   001174  EFD0  F008         	goto	i2l3588
  1384   001178                     i2u291_40:
  1385   001178  BA81               	btfsc	129,5,c	;volatile
  1386   00117A  EFC1  F008         	goto	i2u292_41
  1387   00117E  EFC3  F008         	goto	i2u292_40
  1388   001182                     i2u292_41:
  1389   001182  EFD0  F008         	goto	i2l3588
  1390   001186                     i2u292_40:
  1391   001186  5021               	movf	_RB5_FLAG^0,w,c	;volatile
  1392   001188  A4D8               	btfss	status,2,c
  1393   00118A  EFC9  F008         	goto	i2u293_41
  1394   00118E  EFCB  F008         	goto	i2u293_40
  1395   001192                     i2u293_41:
  1396   001192  EFD0  F008         	goto	i2l3588
  1397   001196                     i2u293_40:
  1398   001196                     
  1399                           ;MCAL_Layer/Interrupt/mcal_interrupt_manager.c: 63:         RB5_FLAG=1;
  1400   001196  0E01               	movlw	1
  1401   001198  6E21               	movwf	_RB5_FLAG^0,c	;volatile
  1402   00119A                     
  1403                           ;MCAL_Layer/Interrupt/mcal_interrupt_manager.c: 64:         RB5_ISR(0);
  1404   00119A  0E00               	movlw	0
  1405   00119C  EC81  F00C         	call	_RB5_ISR
  1406   0011A0                     i2l3588:
  1407                           
  1408                           ;MCAL_Layer/Interrupt/mcal_interrupt_manager.c: 66:     if((INTCONbits.RBIE == 1 ) && (I
      +                          NTCONbits.RBIF == 1) && (PORTBbits.RB6 == GPIO_HIGH) && (RB6_FLAG == 1)){
  1409   0011A0  A6F2               	btfss	242,3,c	;volatile
  1410   0011A2  EFD5  F008         	goto	i2u294_41
  1411   0011A6  EFD7  F008         	goto	i2u294_40
  1412   0011AA                     i2u294_41:
  1413   0011AA  EFF2  F008         	goto	i2l687
  1414   0011AE                     i2u294_40:
  1415   0011AE  A0F2               	btfss	242,0,c	;volatile
  1416   0011B0  EFDC  F008         	goto	i2u295_41
  1417   0011B4  EFDE  F008         	goto	i2u295_40
  1418   0011B8                     i2u295_41:
  1419   0011B8  EFF2  F008         	goto	i2l687
  1420   0011BC                     i2u295_40:
  1421   0011BC  AC81               	btfss	129,6,c	;volatile
  1422   0011BE  EFE3  F008         	goto	i2u296_41
  1423   0011C2  EFE5  F008         	goto	i2u296_40
  1424   0011C6                     i2u296_41:
  1425   0011C6  EFF2  F008         	goto	i2l687
  1426   0011CA                     i2u296_40:
  1427   0011CA  0420               	decf	_RB6_FLAG^0,w,c	;volatile
  1428   0011CC  A4D8               	btfss	status,2,c
  1429   0011CE  EFEB  F008         	goto	i2u297_41
  1430   0011D2  EFED  F008         	goto	i2u297_40
  1431   0011D6                     i2u297_41:
  1432   0011D6  EFF2  F008         	goto	i2l687
  1433   0011DA                     i2u297_40:
  1434   0011DA                     
  1435                           ;MCAL_Layer/Interrupt/mcal_interrupt_manager.c: 67:         RB6_FLAG=0;
  1436   0011DA  0E00               	movlw	0
  1437   0011DC  6E20               	movwf	_RB6_FLAG^0,c	;volatile
  1438   0011DE                     
  1439                           ;MCAL_Layer/Interrupt/mcal_interrupt_manager.c: 68:         RB6_ISR(1);
  1440   0011DE  0E01               	movlw	1
  1441   0011E0  EC42  F00C         	call	_RB6_ISR
  1442   0011E4                     i2l687:
  1443                           
  1444                           ;MCAL_Layer/Interrupt/mcal_interrupt_manager.c: 71:     if((INTCONbits.RBIE == 1 ) && (I
      +                          NTCONbits.RBIF == 1) && (PORTBbits.RB6 == GPIO_LOW) && (RB6_FLAG == 0)){
  1445   0011E4  A6F2               	btfss	242,3,c	;volatile
  1446   0011E6  EFF7  F008         	goto	i2u298_41
  1447   0011EA  EFF9  F008         	goto	i2u298_40
  1448   0011EE                     i2u298_41:
  1449   0011EE  EF14  F009         	goto	i2l3610
  1450   0011F2                     i2u298_40:
  1451   0011F2  A0F2               	btfss	242,0,c	;volatile
  1452   0011F4  EFFE  F008         	goto	i2u299_41
  1453   0011F8  EF00  F009         	goto	i2u299_40
  1454   0011FC                     i2u299_41:
  1455   0011FC  EF14  F009         	goto	i2l3610
  1456   001200                     i2u299_40:
  1457   001200  BC81               	btfsc	129,6,c	;volatile
  1458   001202  EF05  F009         	goto	i2u300_41
  1459   001206  EF07  F009         	goto	i2u300_40
  1460   00120A                     i2u300_41:
  1461   00120A  EF14  F009         	goto	i2l3610
  1462   00120E                     i2u300_40:
  1463   00120E  5020               	movf	_RB6_FLAG^0,w,c	;volatile
  1464   001210  A4D8               	btfss	status,2,c
  1465   001212  EF0D  F009         	goto	i2u301_41
  1466   001216  EF0F  F009         	goto	i2u301_40
  1467   00121A                     i2u301_41:
  1468   00121A  EF14  F009         	goto	i2l3610
  1469   00121E                     i2u301_40:
  1470   00121E                     
  1471                           ;MCAL_Layer/Interrupt/mcal_interrupt_manager.c: 72:         RB6_FLAG=1;
  1472   00121E  0E01               	movlw	1
  1473   001220  6E20               	movwf	_RB6_FLAG^0,c	;volatile
  1474   001222                     
  1475                           ;MCAL_Layer/Interrupt/mcal_interrupt_manager.c: 73:         RB6_ISR(0);
  1476   001222  0E00               	movlw	0
  1477   001224  EC42  F00C         	call	_RB6_ISR
  1478   001228                     i2l3610:
  1479                           
  1480                           ;MCAL_Layer/Interrupt/mcal_interrupt_manager.c: 75:     if((INTCONbits.RBIE == 1 ) && (I
      +                          NTCONbits.RBIF == 1) && (PORTBbits.RB7 == GPIO_HIGH) && (RB7_FLAG == 1)){
  1481   001228  A6F2               	btfss	242,3,c	;volatile
  1482   00122A  EF19  F009         	goto	i2u302_41
  1483   00122E  EF1B  F009         	goto	i2u302_40
  1484   001232                     i2u302_41:
  1485   001232  EF36  F009         	goto	i2l690
  1486   001236                     i2u302_40:
  1487   001236  A0F2               	btfss	242,0,c	;volatile
  1488   001238  EF20  F009         	goto	i2u303_41
  1489   00123C  EF22  F009         	goto	i2u303_40
  1490   001240                     i2u303_41:
  1491   001240  EF36  F009         	goto	i2l690
  1492   001244                     i2u303_40:
  1493   001244  AE81               	btfss	129,7,c	;volatile
  1494   001246  EF27  F009         	goto	i2u304_41
  1495   00124A  EF29  F009         	goto	i2u304_40
  1496   00124E                     i2u304_41:
  1497   00124E  EF36  F009         	goto	i2l690
  1498   001252                     i2u304_40:
  1499   001252  041F               	decf	_RB7_FLAG^0,w,c	;volatile
  1500   001254  A4D8               	btfss	status,2,c
  1501   001256  EF2F  F009         	goto	i2u305_41
  1502   00125A  EF31  F009         	goto	i2u305_40
  1503   00125E                     i2u305_41:
  1504   00125E  EF36  F009         	goto	i2l690
  1505   001262                     i2u305_40:
  1506   001262                     
  1507                           ;MCAL_Layer/Interrupt/mcal_interrupt_manager.c: 76:         RB7_FLAG=0;
  1508   001262  0E00               	movlw	0
  1509   001264  6E1F               	movwf	_RB7_FLAG^0,c	;volatile
  1510   001266                     
  1511                           ;MCAL_Layer/Interrupt/mcal_interrupt_manager.c: 77:         RB7_ISR(1);
  1512   001266  0E01               	movlw	1
  1513   001268  EC03  F00C         	call	_RB7_ISR
  1514   00126C                     i2l690:
  1515                           
  1516                           ;MCAL_Layer/Interrupt/mcal_interrupt_manager.c: 80:     if((INTCONbits.RBIE == 1 ) && (I
      +                          NTCONbits.RBIF == 1) && (PORTBbits.RB7 == GPIO_LOW) && (RB7_FLAG == 0)){
  1517   00126C  A6F2               	btfss	242,3,c	;volatile
  1518   00126E  EF3B  F009         	goto	i2u306_41
  1519   001272  EF3D  F009         	goto	i2u306_40
  1520   001276                     i2u306_41:
  1521   001276  EF58  F009         	goto	i2l692
  1522   00127A                     i2u306_40:
  1523   00127A  A0F2               	btfss	242,0,c	;volatile
  1524   00127C  EF42  F009         	goto	i2u307_41
  1525   001280  EF44  F009         	goto	i2u307_40
  1526   001284                     i2u307_41:
  1527   001284  EF58  F009         	goto	i2l692
  1528   001288                     i2u307_40:
  1529   001288  BE81               	btfsc	129,7,c	;volatile
  1530   00128A  EF49  F009         	goto	i2u308_41
  1531   00128E  EF4B  F009         	goto	i2u308_40
  1532   001292                     i2u308_41:
  1533   001292  EF58  F009         	goto	i2l692
  1534   001296                     i2u308_40:
  1535   001296  501F               	movf	_RB7_FLAG^0,w,c	;volatile
  1536   001298  A4D8               	btfss	status,2,c
  1537   00129A  EF51  F009         	goto	i2u309_41
  1538   00129E  EF53  F009         	goto	i2u309_40
  1539   0012A2                     i2u309_41:
  1540   0012A2  EF58  F009         	goto	i2l692
  1541   0012A6                     i2u309_40:
  1542   0012A6                     
  1543                           ;MCAL_Layer/Interrupt/mcal_interrupt_manager.c: 81:         RB7_FLAG=1;
  1544   0012A6  0E01               	movlw	1
  1545   0012A8  6E1F               	movwf	_RB7_FLAG^0,c	;volatile
  1546   0012AA                     
  1547                           ;MCAL_Layer/Interrupt/mcal_interrupt_manager.c: 82:         RB7_ISR(0);
  1548   0012AA  0E00               	movlw	0
  1549   0012AC  EC03  F00C         	call	_RB7_ISR
  1550   0012B0                     i2l692:
  1551   0012B0  C065  FFF4         	movff	??_InterruptNoPriority+5,prodh
  1552   0012B4  C064  FFF3         	movff	??_InterruptNoPriority+4,prodl
  1553   0012B8  C063  FFDA         	movff	??_InterruptNoPriority+3,fsr2h
  1554   0012BC  C062  FFD9         	movff	??_InterruptNoPriority+2,fsr2l
  1555   0012C0  C061  FFFB         	movff	??_InterruptNoPriority+1,pclatu
  1556   0012C4  C060  FFFA         	movff	??_InterruptNoPriority,pclath
  1557   0012C8  926A               	bcf	int$flags,1,c	;clear compiler interrupt flag (level 2)
  1558   0012CA  0011               	retfie		f
  1559   0012CC                     __end_of_InterruptNoPriority:
  1560                           	callstack 0
  1561                           
  1562 ;; *************** function _RB7_ISR *****************
  1563 ;; Defined at:
  1564 ;;		line 440 in file "MCAL_Layer/Interrupt/mcal_external_interrupt.c"
  1565 ;; Parameters:    Size  Location     Type
  1566 ;;  rb7_source      1    wreg     unsigned char 
  1567 ;; Auto vars:     Size  Location     Type
  1568 ;;  rb7_source      1   14[COMRAM] unsigned char 
  1569 ;; Return value:  Size  Location     Type
  1570 ;;                  1    wreg      void 
  1571 ;; Registers used:
  1572 ;;		wreg, fsr2l, fsr2h, status,2, status,0, pcl, pclath, pclatu, tosl, prodl, prodh, cstack
  1573 ;; Tracked objects:
  1574 ;;		On entry : 0/0
  1575 ;;		On exit  : 0/0
  1576 ;;		Unchanged: 0/0
  1577 ;; Data sizes:     COMRAM   BANK0   BANK1   BANK2   BANK3   BANK4   BANK5   BANK6   BANK7   BANK8   BANK9  BANK10  BANK1
      +1  BANK12  BANK13  BANK14  BANK15
  1578 ;;      Params:         0       0       0       0       0       0       0       0       0       0       0       0       
      +0       0       0       0       0
  1579 ;;      Locals:         1       0       0       0       0       0       0       0       0       0       0       0       
      +0       0       0       0       0
  1580 ;;      Temps:          0       0       0       0       0       0       0       0       0       0       0       0       
      +0       0       0       0       0
  1581 ;;      Totals:         1       0       0       0       0       0       0       0       0       0       0       0       
      +0       0       0       0       0
  1582 ;;Total ram usage:        1 bytes
  1583 ;; Hardware stack levels used: 1
  1584 ;; Hardware stack levels required when called: 3
  1585 ;; This function calls:
  1586 ;;		NULL
  1587 ;;		_RB4_APP_ISR_HIGH
  1588 ;;		_RB4_APP_ISR_LOW
  1589 ;;		_RB5_APP_ISR_HIGH
  1590 ;;		_RB5_APP_ISR_LOW
  1591 ;; This function is called by:
  1592 ;;		_InterruptNoPriority
  1593 ;; This function uses a non-reentrant model
  1594 ;;
  1595                           
  1596                           	psect	text6
  1597   001806                     __ptext6:
  1598                           	callstack 0
  1599   001806                     _RB7_ISR:
  1600                           	callstack 24
  1601                           
  1602                           ;incstack = 0
  1603                           ;RB7_ISR@rb7_source stored from wreg
  1604   001806  6E5F               	movwf	RB7_ISR@rb7_source^0,c
  1605   001808                     
  1606                           ;MCAL_Layer/Interrupt/mcal_external_interrupt.c: 441:     (INTCONbits.RBIF = 0);
  1607   001808  90F2               	bcf	242,0,c	;volatile
  1608   00180A                     
  1609                           ;MCAL_Layer/Interrupt/mcal_external_interrupt.c: 443:     if(rb7_source == 0){
  1610   00180A  505F               	movf	RB7_ISR@rb7_source^0,w,c
  1611   00180C  A4D8               	btfss	status,2,c
  1612   00180E  EF0B  F00C         	goto	i2u222_41
  1613   001812  EF0D  F00C         	goto	i2u222_40
  1614   001816                     i2u222_41:
  1615   001816  EF24  F00C         	goto	i2l3056
  1616   00181A                     i2u222_40:
  1617   00181A                     
  1618                           ;MCAL_Layer/Interrupt/mcal_external_interrupt.c: 444:         if(RB7_InterruptHandler_HI
      +                          GH){ RB7_InterruptHandler_HIGH(); }
  1619   00181A  5035               	movf	_RB7_InterruptHandler_HIGH^0,w,c
  1620   00181C  1036               	iorwf	(_RB7_InterruptHandler_HIGH+1)^0,w,c
  1621   00181E  B4D8               	btfsc	status,2,c
  1622   001820  EF14  F00C         	goto	i2u223_41
  1623   001824  EF16  F00C         	goto	i2u223_40
  1624   001828                     i2u223_41:
  1625   001828  EF41  F00C         	goto	i2l641
  1626   00182C                     i2u223_40:
  1627   00182C  D802               	call	i2u224_48
  1628   00182E  EF22  F00C         	goto	i2u224_49
  1629   001832                     i2u224_48:
  1630   001832  0005               	push	
  1631   001834  6EFA               	movwf	pclath,c
  1632   001836  5035               	movf	_RB7_InterruptHandler_HIGH^0,w,c
  1633   001838  6EFD               	movwf	tosl,c
  1634   00183A  5036               	movf	(_RB7_InterruptHandler_HIGH+1)^0,w,c
  1635   00183C  6EFE               	movwf	tosh,c
  1636   00183E  6AFF               	clrf	tosu,c
  1637   001840  50FA               	movf	pclath,w,c
  1638   001842  0012               	return		;indir
  1639   001844                     i2u224_49:
  1640   001844  EF41  F00C         	goto	i2l641
  1641   001848                     i2l3056:
  1642   001848  045F               	decf	RB7_ISR@rb7_source^0,w,c
  1643   00184A  A4D8               	btfss	status,2,c
  1644   00184C  EF2A  F00C         	goto	i2u225_41
  1645   001850  EF2C  F00C         	goto	i2u225_40
  1646   001854                     i2u225_41:
  1647   001854  EF41  F00C         	goto	i2l641
  1648   001858                     i2u225_40:
  1649   001858                     
  1650                           ;MCAL_Layer/Interrupt/mcal_external_interrupt.c: 446:         if(RB7_InterruptHandler_LO
      +                          W){ RB7_InterruptHandler_LOW(); }
  1651   001858  5033               	movf	_RB7_InterruptHandler_LOW^0,w,c
  1652   00185A  1034               	iorwf	(_RB7_InterruptHandler_LOW+1)^0,w,c
  1653   00185C  B4D8               	btfsc	status,2,c
  1654   00185E  EF33  F00C         	goto	i2u226_41
  1655   001862  EF35  F00C         	goto	i2u226_40
  1656   001866                     i2u226_41:
  1657   001866  EF41  F00C         	goto	i2l641
  1658   00186A                     i2u226_40:
  1659   00186A  D802               	call	i2u227_48
  1660   00186C  EF41  F00C         	goto	i2u227_49
  1661   001870                     i2u227_48:
  1662   001870  0005               	push	
  1663   001872  6EFA               	movwf	pclath,c
  1664   001874  5033               	movf	_RB7_InterruptHandler_LOW^0,w,c
  1665   001876  6EFD               	movwf	tosl,c
  1666   001878  5034               	movf	(_RB7_InterruptHandler_LOW+1)^0,w,c
  1667   00187A  6EFE               	movwf	tosh,c
  1668   00187C  6AFF               	clrf	tosu,c
  1669   00187E  50FA               	movf	pclath,w,c
  1670   001880  0012               	return		;indir
  1671   001882                     i2u227_49:
  1672   001882                     i2l641:
  1673   001882  0012               	return		;funcret
  1674   001884                     __end_of_RB7_ISR:
  1675                           	callstack 0
  1676                           
  1677 ;; *************** function _RB6_ISR *****************
  1678 ;; Defined at:
  1679 ;;		line 430 in file "MCAL_Layer/Interrupt/mcal_external_interrupt.c"
  1680 ;; Parameters:    Size  Location     Type
  1681 ;;  rb6_source      1    wreg     unsigned char 
  1682 ;; Auto vars:     Size  Location     Type
  1683 ;;  rb6_source      1   14[COMRAM] unsigned char 
  1684 ;; Return value:  Size  Location     Type
  1685 ;;                  1    wreg      void 
  1686 ;; Registers used:
  1687 ;;		wreg, fsr2l, fsr2h, status,2, status,0, pcl, pclath, pclatu, tosl, prodl, prodh, cstack
  1688 ;; Tracked objects:
  1689 ;;		On entry : 0/0
  1690 ;;		On exit  : 0/0
  1691 ;;		Unchanged: 0/0
  1692 ;; Data sizes:     COMRAM   BANK0   BANK1   BANK2   BANK3   BANK4   BANK5   BANK6   BANK7   BANK8   BANK9  BANK10  BANK1
      +1  BANK12  BANK13  BANK14  BANK15
  1693 ;;      Params:         0       0       0       0       0       0       0       0       0       0       0       0       
      +0       0       0       0       0
  1694 ;;      Locals:         1       0       0       0       0       0       0       0       0       0       0       0       
      +0       0       0       0       0
  1695 ;;      Temps:          0       0       0       0       0       0       0       0       0       0       0       0       
      +0       0       0       0       0
  1696 ;;      Totals:         1       0       0       0       0       0       0       0       0       0       0       0       
      +0       0       0       0       0
  1697 ;;Total ram usage:        1 bytes
  1698 ;; Hardware stack levels used: 1
  1699 ;; Hardware stack levels required when called: 3
  1700 ;; This function calls:
  1701 ;;		NULL
  1702 ;;		_RB4_APP_ISR_HIGH
  1703 ;;		_RB4_APP_ISR_LOW
  1704 ;;		_RB5_APP_ISR_HIGH
  1705 ;;		_RB5_APP_ISR_LOW
  1706 ;; This function is called by:
  1707 ;;		_InterruptNoPriority
  1708 ;; This function uses a non-reentrant model
  1709 ;;
  1710                           
  1711                           	psect	text7
  1712   001884                     __ptext7:
  1713                           	callstack 0
  1714   001884                     _RB6_ISR:
  1715                           	callstack 24
  1716                           
  1717                           ;incstack = 0
  1718                           ;RB6_ISR@rb6_source stored from wreg
  1719   001884  6E5F               	movwf	RB6_ISR@rb6_source^0,c
  1720   001886                     
  1721                           ;MCAL_Layer/Interrupt/mcal_external_interrupt.c: 431:     (INTCONbits.RBIF = 0);
  1722   001886  90F2               	bcf	242,0,c	;volatile
  1723   001888                     
  1724                           ;MCAL_Layer/Interrupt/mcal_external_interrupt.c: 433:     if(rb6_source == 0){
  1725   001888  505F               	movf	RB6_ISR@rb6_source^0,w,c
  1726   00188A  A4D8               	btfss	status,2,c
  1727   00188C  EF4A  F00C         	goto	i2u216_41
  1728   001890  EF4C  F00C         	goto	i2u216_40
  1729   001894                     i2u216_41:
  1730   001894  EF63  F00C         	goto	i2l3042
  1731   001898                     i2u216_40:
  1732   001898                     
  1733                           ;MCAL_Layer/Interrupt/mcal_external_interrupt.c: 434:         if(RB6_InterruptHandler_HI
      +                          GH){ RB6_InterruptHandler_HIGH(); }
  1734   001898  5039               	movf	_RB6_InterruptHandler_HIGH^0,w,c
  1735   00189A  103A               	iorwf	(_RB6_InterruptHandler_HIGH+1)^0,w,c
  1736   00189C  B4D8               	btfsc	status,2,c
  1737   00189E  EF53  F00C         	goto	i2u217_41
  1738   0018A2  EF55  F00C         	goto	i2u217_40
  1739   0018A6                     i2u217_41:
  1740   0018A6  EF80  F00C         	goto	i2l632
  1741   0018AA                     i2u217_40:
  1742   0018AA  D802               	call	i2u218_48
  1743   0018AC  EF61  F00C         	goto	i2u218_49
  1744   0018B0                     i2u218_48:
  1745   0018B0  0005               	push	
  1746   0018B2  6EFA               	movwf	pclath,c
  1747   0018B4  5039               	movf	_RB6_InterruptHandler_HIGH^0,w,c
  1748   0018B6  6EFD               	movwf	tosl,c
  1749   0018B8  503A               	movf	(_RB6_InterruptHandler_HIGH+1)^0,w,c
  1750   0018BA  6EFE               	movwf	tosh,c
  1751   0018BC  6AFF               	clrf	tosu,c
  1752   0018BE  50FA               	movf	pclath,w,c
  1753   0018C0  0012               	return		;indir
  1754   0018C2                     i2u218_49:
  1755   0018C2  EF80  F00C         	goto	i2l632
  1756   0018C6                     i2l3042:
  1757   0018C6  045F               	decf	RB6_ISR@rb6_source^0,w,c
  1758   0018C8  A4D8               	btfss	status,2,c
  1759   0018CA  EF69  F00C         	goto	i2u219_41
  1760   0018CE  EF6B  F00C         	goto	i2u219_40
  1761   0018D2                     i2u219_41:
  1762   0018D2  EF80  F00C         	goto	i2l632
  1763   0018D6                     i2u219_40:
  1764   0018D6                     
  1765                           ;MCAL_Layer/Interrupt/mcal_external_interrupt.c: 436:         if(RB6_InterruptHandler_LO
      +                          W){ RB6_InterruptHandler_LOW(); }
  1766   0018D6  5037               	movf	_RB6_InterruptHandler_LOW^0,w,c
  1767   0018D8  1038               	iorwf	(_RB6_InterruptHandler_LOW+1)^0,w,c
  1768   0018DA  B4D8               	btfsc	status,2,c
  1769   0018DC  EF72  F00C         	goto	i2u220_41
  1770   0018E0  EF74  F00C         	goto	i2u220_40
  1771   0018E4                     i2u220_41:
  1772   0018E4  EF80  F00C         	goto	i2l632
  1773   0018E8                     i2u220_40:
  1774   0018E8  D802               	call	i2u221_48
  1775   0018EA  EF80  F00C         	goto	i2u221_49
  1776   0018EE                     i2u221_48:
  1777   0018EE  0005               	push	
  1778   0018F0  6EFA               	movwf	pclath,c
  1779   0018F2  5037               	movf	_RB6_InterruptHandler_LOW^0,w,c
  1780   0018F4  6EFD               	movwf	tosl,c
  1781   0018F6  5038               	movf	(_RB6_InterruptHandler_LOW+1)^0,w,c
  1782   0018F8  6EFE               	movwf	tosh,c
  1783   0018FA  6AFF               	clrf	tosu,c
  1784   0018FC  50FA               	movf	pclath,w,c
  1785   0018FE  0012               	return		;indir
  1786   001900                     i2u221_49:
  1787   001900                     i2l632:
  1788   001900  0012               	return		;funcret
  1789   001902                     __end_of_RB6_ISR:
  1790                           	callstack 0
  1791                           
  1792 ;; *************** function _RB5_ISR *****************
  1793 ;; Defined at:
  1794 ;;		line 420 in file "MCAL_Layer/Interrupt/mcal_external_interrupt.c"
  1795 ;; Parameters:    Size  Location     Type
  1796 ;;  rb5_source      1    wreg     unsigned char 
  1797 ;; Auto vars:     Size  Location     Type
  1798 ;;  rb5_source      1   14[COMRAM] unsigned char 
  1799 ;; Return value:  Size  Location     Type
  1800 ;;                  1    wreg      void 
  1801 ;; Registers used:
  1802 ;;		wreg, fsr2l, fsr2h, status,2, status,0, pcl, pclath, pclatu, tosl, prodl, prodh, cstack
  1803 ;; Tracked objects:
  1804 ;;		On entry : 0/0
  1805 ;;		On exit  : 0/0
  1806 ;;		Unchanged: 0/0
  1807 ;; Data sizes:     COMRAM   BANK0   BANK1   BANK2   BANK3   BANK4   BANK5   BANK6   BANK7   BANK8   BANK9  BANK10  BANK1
      +1  BANK12  BANK13  BANK14  BANK15
  1808 ;;      Params:         0       0       0       0       0       0       0       0       0       0       0       0       
      +0       0       0       0       0
  1809 ;;      Locals:         1       0       0       0       0       0       0       0       0       0       0       0       
      +0       0       0       0       0
  1810 ;;      Temps:          0       0       0       0       0       0       0       0       0       0       0       0       
      +0       0       0       0       0
  1811 ;;      Totals:         1       0       0       0       0       0       0       0       0       0       0       0       
      +0       0       0       0       0
  1812 ;;Total ram usage:        1 bytes
  1813 ;; Hardware stack levels used: 1
  1814 ;; Hardware stack levels required when called: 3
  1815 ;; This function calls:
  1816 ;;		NULL
  1817 ;;		_RB4_APP_ISR_HIGH
  1818 ;;		_RB4_APP_ISR_LOW
  1819 ;;		_RB5_APP_ISR_HIGH
  1820 ;;		_RB5_APP_ISR_LOW
  1821 ;; This function is called by:
  1822 ;;		_InterruptNoPriority
  1823 ;; This function uses a non-reentrant model
  1824 ;;
  1825                           
  1826                           	psect	text8
  1827   001902                     __ptext8:
  1828                           	callstack 0
  1829   001902                     _RB5_ISR:
  1830                           	callstack 24
  1831                           
  1832                           ;incstack = 0
  1833                           ;RB5_ISR@rb5_source stored from wreg
  1834   001902  6E5F               	movwf	RB5_ISR@rb5_source^0,c
  1835   001904                     
  1836                           ;MCAL_Layer/Interrupt/mcal_external_interrupt.c: 421:     (INTCONbits.RBIF = 0);
  1837   001904  90F2               	bcf	242,0,c	;volatile
  1838   001906                     
  1839                           ;MCAL_Layer/Interrupt/mcal_external_interrupt.c: 423:     if(rb5_source == 0){
  1840   001906  505F               	movf	RB5_ISR@rb5_source^0,w,c
  1841   001908  A4D8               	btfss	status,2,c
  1842   00190A  EF89  F00C         	goto	i2u210_41
  1843   00190E  EF8B  F00C         	goto	i2u210_40
  1844   001912                     i2u210_41:
  1845   001912  EFA2  F00C         	goto	i2l3028
  1846   001916                     i2u210_40:
  1847   001916                     
  1848                           ;MCAL_Layer/Interrupt/mcal_external_interrupt.c: 424:         if(RB5_InterruptHandler_HI
      +                          GH){ RB5_InterruptHandler_HIGH(); }
  1849   001916  503D               	movf	_RB5_InterruptHandler_HIGH^0,w,c
  1850   001918  103E               	iorwf	(_RB5_InterruptHandler_HIGH+1)^0,w,c
  1851   00191A  B4D8               	btfsc	status,2,c
  1852   00191C  EF92  F00C         	goto	i2u211_41
  1853   001920  EF94  F00C         	goto	i2u211_40
  1854   001924                     i2u211_41:
  1855   001924  EFBF  F00C         	goto	i2l623
  1856   001928                     i2u211_40:
  1857   001928  D802               	call	i2u212_48
  1858   00192A  EFA0  F00C         	goto	i2u212_49
  1859   00192E                     i2u212_48:
  1860   00192E  0005               	push	
  1861   001930  6EFA               	movwf	pclath,c
  1862   001932  503D               	movf	_RB5_InterruptHandler_HIGH^0,w,c
  1863   001934  6EFD               	movwf	tosl,c
  1864   001936  503E               	movf	(_RB5_InterruptHandler_HIGH+1)^0,w,c
  1865   001938  6EFE               	movwf	tosh,c
  1866   00193A  6AFF               	clrf	tosu,c
  1867   00193C  50FA               	movf	pclath,w,c
  1868   00193E  0012               	return		;indir
  1869   001940                     i2u212_49:
  1870   001940  EFBF  F00C         	goto	i2l623
  1871   001944                     i2l3028:
  1872   001944  045F               	decf	RB5_ISR@rb5_source^0,w,c
  1873   001946  A4D8               	btfss	status,2,c
  1874   001948  EFA8  F00C         	goto	i2u213_41
  1875   00194C  EFAA  F00C         	goto	i2u213_40
  1876   001950                     i2u213_41:
  1877   001950  EFBF  F00C         	goto	i2l623
  1878   001954                     i2u213_40:
  1879   001954                     
  1880                           ;MCAL_Layer/Interrupt/mcal_external_interrupt.c: 426:         if(RB5_InterruptHandler_LO
      +                          W){ RB5_InterruptHandler_LOW(); }
  1881   001954  503B               	movf	_RB5_InterruptHandler_LOW^0,w,c
  1882   001956  103C               	iorwf	(_RB5_InterruptHandler_LOW+1)^0,w,c
  1883   001958  B4D8               	btfsc	status,2,c
  1884   00195A  EFB1  F00C         	goto	i2u214_41
  1885   00195E  EFB3  F00C         	goto	i2u214_40
  1886   001962                     i2u214_41:
  1887   001962  EFBF  F00C         	goto	i2l623
  1888   001966                     i2u214_40:
  1889   001966  D802               	call	i2u215_48
  1890   001968  EFBF  F00C         	goto	i2u215_49
  1891   00196C                     i2u215_48:
  1892   00196C  0005               	push	
  1893   00196E  6EFA               	movwf	pclath,c
  1894   001970  503B               	movf	_RB5_InterruptHandler_LOW^0,w,c
  1895   001972  6EFD               	movwf	tosl,c
  1896   001974  503C               	movf	(_RB5_InterruptHandler_LOW+1)^0,w,c
  1897   001976  6EFE               	movwf	tosh,c
  1898   001978  6AFF               	clrf	tosu,c
  1899   00197A  50FA               	movf	pclath,w,c
  1900   00197C  0012               	return		;indir
  1901   00197E                     i2u215_49:
  1902   00197E                     i2l623:
  1903   00197E  0012               	return		;funcret
  1904   001980                     __end_of_RB5_ISR:
  1905                           	callstack 0
  1906                           
  1907 ;; *************** function _RB4_ISR *****************
  1908 ;; Defined at:
  1909 ;;		line 410 in file "MCAL_Layer/Interrupt/mcal_external_interrupt.c"
  1910 ;; Parameters:    Size  Location     Type
  1911 ;;  rb4_source      1    wreg     unsigned char 
  1912 ;; Auto vars:     Size  Location     Type
  1913 ;;  rb4_source      1   14[COMRAM] unsigned char 
  1914 ;; Return value:  Size  Location     Type
  1915 ;;                  1    wreg      void 
  1916 ;; Registers used:
  1917 ;;		wreg, fsr2l, fsr2h, status,2, status,0, pcl, pclath, pclatu, tosl, prodl, prodh, cstack
  1918 ;; Tracked objects:
  1919 ;;		On entry : 0/0
  1920 ;;		On exit  : 0/0
  1921 ;;		Unchanged: 0/0
  1922 ;; Data sizes:     COMRAM   BANK0   BANK1   BANK2   BANK3   BANK4   BANK5   BANK6   BANK7   BANK8   BANK9  BANK10  BANK1
      +1  BANK12  BANK13  BANK14  BANK15
  1923 ;;      Params:         0       0       0       0       0       0       0       0       0       0       0       0       
      +0       0       0       0       0
  1924 ;;      Locals:         1       0       0       0       0       0       0       0       0       0       0       0       
      +0       0       0       0       0
  1925 ;;      Temps:          0       0       0       0       0       0       0       0       0       0       0       0       
      +0       0       0       0       0
  1926 ;;      Totals:         1       0       0       0       0       0       0       0       0       0       0       0       
      +0       0       0       0       0
  1927 ;;Total ram usage:        1 bytes
  1928 ;; Hardware stack levels used: 1
  1929 ;; Hardware stack levels required when called: 3
  1930 ;; This function calls:
  1931 ;;		NULL
  1932 ;;		_RB4_APP_ISR_HIGH
  1933 ;;		_RB4_APP_ISR_LOW
  1934 ;;		_RB5_APP_ISR_HIGH
  1935 ;;		_RB5_APP_ISR_LOW
  1936 ;; This function is called by:
  1937 ;;		_InterruptNoPriority
  1938 ;; This function uses a non-reentrant model
  1939 ;;
  1940                           
  1941                           	psect	text9
  1942   001980                     __ptext9:
  1943                           	callstack 0
  1944   001980                     _RB4_ISR:
  1945                           	callstack 24
  1946                           
  1947                           ;incstack = 0
  1948                           ;RB4_ISR@rb4_source stored from wreg
  1949   001980  6E5F               	movwf	RB4_ISR@rb4_source^0,c
  1950   001982                     
  1951                           ;MCAL_Layer/Interrupt/mcal_external_interrupt.c: 411:     (INTCONbits.RBIF = 0);
  1952   001982  90F2               	bcf	242,0,c	;volatile
  1953   001984                     
  1954                           ;MCAL_Layer/Interrupt/mcal_external_interrupt.c: 413:     if(rb4_source == 0){
  1955   001984  505F               	movf	RB4_ISR@rb4_source^0,w,c
  1956   001986  A4D8               	btfss	status,2,c
  1957   001988  EFC8  F00C         	goto	i2u204_41
  1958   00198C  EFCA  F00C         	goto	i2u204_40
  1959   001990                     i2u204_41:
  1960   001990  EFE1  F00C         	goto	i2l3014
  1961   001994                     i2u204_40:
  1962   001994                     
  1963                           ;MCAL_Layer/Interrupt/mcal_external_interrupt.c: 414:         if(RB4_InterruptHandler_HI
      +                          GH){ RB4_InterruptHandler_HIGH(); }
  1964   001994  5041               	movf	_RB4_InterruptHandler_HIGH^0,w,c
  1965   001996  1042               	iorwf	(_RB4_InterruptHandler_HIGH+1)^0,w,c
  1966   001998  B4D8               	btfsc	status,2,c
  1967   00199A  EFD1  F00C         	goto	i2u205_41
  1968   00199E  EFD3  F00C         	goto	i2u205_40
  1969   0019A2                     i2u205_41:
  1970   0019A2  EFFE  F00C         	goto	i2l614
  1971   0019A6                     i2u205_40:
  1972   0019A6  D802               	call	i2u206_48
  1973   0019A8  EFDF  F00C         	goto	i2u206_49
  1974   0019AC                     i2u206_48:
  1975   0019AC  0005               	push	
  1976   0019AE  6EFA               	movwf	pclath,c
  1977   0019B0  5041               	movf	_RB4_InterruptHandler_HIGH^0,w,c
  1978   0019B2  6EFD               	movwf	tosl,c
  1979   0019B4  5042               	movf	(_RB4_InterruptHandler_HIGH+1)^0,w,c
  1980   0019B6  6EFE               	movwf	tosh,c
  1981   0019B8  6AFF               	clrf	tosu,c
  1982   0019BA  50FA               	movf	pclath,w,c
  1983   0019BC  0012               	return		;indir
  1984   0019BE                     i2u206_49:
  1985   0019BE  EFFE  F00C         	goto	i2l614
  1986   0019C2                     i2l3014:
  1987   0019C2  045F               	decf	RB4_ISR@rb4_source^0,w,c
  1988   0019C4  A4D8               	btfss	status,2,c
  1989   0019C6  EFE7  F00C         	goto	i2u207_41
  1990   0019CA  EFE9  F00C         	goto	i2u207_40
  1991   0019CE                     i2u207_41:
  1992   0019CE  EFFE  F00C         	goto	i2l614
  1993   0019D2                     i2u207_40:
  1994   0019D2                     
  1995                           ;MCAL_Layer/Interrupt/mcal_external_interrupt.c: 416:         if(RB4_InterruptHandler_LO
      +                          W){ RB4_InterruptHandler_LOW(); }
  1996   0019D2  503F               	movf	_RB4_InterruptHandler_LOW^0,w,c
  1997   0019D4  1040               	iorwf	(_RB4_InterruptHandler_LOW+1)^0,w,c
  1998   0019D6  B4D8               	btfsc	status,2,c
  1999   0019D8  EFF0  F00C         	goto	i2u208_41
  2000   0019DC  EFF2  F00C         	goto	i2u208_40
  2001   0019E0                     i2u208_41:
  2002   0019E0  EFFE  F00C         	goto	i2l614
  2003   0019E4                     i2u208_40:
  2004   0019E4  D802               	call	i2u209_48
  2005   0019E6  EFFE  F00C         	goto	i2u209_49
  2006   0019EA                     i2u209_48:
  2007   0019EA  0005               	push	
  2008   0019EC  6EFA               	movwf	pclath,c
  2009   0019EE  503F               	movf	_RB4_InterruptHandler_LOW^0,w,c
  2010   0019F0  6EFD               	movwf	tosl,c
  2011   0019F2  5040               	movf	(_RB4_InterruptHandler_LOW+1)^0,w,c
  2012   0019F4  6EFE               	movwf	tosh,c
  2013   0019F6  6AFF               	clrf	tosu,c
  2014   0019F8  50FA               	movf	pclath,w,c
  2015   0019FA  0012               	return		;indir
  2016   0019FC                     i2u209_49:
  2017   0019FC                     i2l614:
  2018   0019FC  0012               	return		;funcret
  2019   0019FE                     __end_of_RB4_ISR:
  2020                           	callstack 0
  2021                           
  2022 ;; *************** function _RB4_APP_ISR_LOW *****************
  2023 ;; Defined at:
  2024 ;;		line 35 in file "application.c"
  2025 ;; Parameters:    Size  Location     Type
  2026 ;;		None
  2027 ;; Auto vars:     Size  Location     Type
  2028 ;;		None
  2029 ;; Return value:  Size  Location     Type
  2030 ;;                  1    wreg      void 
  2031 ;; Registers used:
  2032 ;;		wreg, fsr2l, fsr2h, status,2, status,0, prodl, prodh, cstack
  2033 ;; Tracked objects:
  2034 ;;		On entry : 0/0
  2035 ;;		On exit  : 0/0
  2036 ;;		Unchanged: 0/0
  2037 ;; Data sizes:     COMRAM   BANK0   BANK1   BANK2   BANK3   BANK4   BANK5   BANK6   BANK7   BANK8   BANK9  BANK10  BANK1
      +1  BANK12  BANK13  BANK14  BANK15
  2038 ;;      Params:         0       0       0       0       0       0       0       0       0       0       0       0       
      +0       0       0       0       0
  2039 ;;      Locals:         0       0       0       0       0       0       0       0       0       0       0       0       
      +0       0       0       0       0
  2040 ;;      Temps:          0       0       0       0       0       0       0       0       0       0       0       0       
      +0       0       0       0       0
  2041 ;;      Totals:         0       0       0       0       0       0       0       0       0       0       0       0       
      +0       0       0       0       0
  2042 ;;Total ram usage:        0 bytes
  2043 ;; Hardware stack levels used: 1
  2044 ;; Hardware stack levels required when called: 2
  2045 ;; This function calls:
  2046 ;;		_led_turn_off
  2047 ;; This function is called by:
  2048 ;;		_RB4_ISR
  2049 ;;		_RB5_ISR
  2050 ;;		_RB6_ISR
  2051 ;;		_RB7_ISR
  2052 ;; This function uses a non-reentrant model
  2053 ;;
  2054                           
  2055                           	psect	text10
  2056   001AB2                     __ptext10:
  2057                           	callstack 0
  2058   001AB2                     _RB4_APP_ISR_LOW:
  2059                           	callstack 24
  2060   001AB2                     
  2061                           ;application.c: 36:     led_turn_off(&led1);
  2062   001AB2  0E31               	movlw	low _led1
  2063   001AB4  6E5B               	movwf	led_turn_off@led^0,c
  2064   001AB6  0E00               	movlw	high _led1
  2065   001AB8  6E5C               	movwf	(led_turn_off@led+1)^0,c
  2066   001ABA  EC81  F00B         	call	_led_turn_off	;wreg free
  2067   001ABE  0012               	return		;funcret
  2068   001AC0                     __end_of_RB4_APP_ISR_LOW:
  2069                           	callstack 0
  2070                           
  2071 ;; *************** function _RB5_APP_ISR_LOW *****************
  2072 ;; Defined at:
  2073 ;;		line 43 in file "application.c"
  2074 ;; Parameters:    Size  Location     Type
  2075 ;;		None
  2076 ;; Auto vars:     Size  Location     Type
  2077 ;;		None
  2078 ;; Return value:  Size  Location     Type
  2079 ;;                  1    wreg      void 
  2080 ;; Registers used:
  2081 ;;		wreg, fsr2l, fsr2h, status,2, status,0, prodl, prodh, cstack
  2082 ;; Tracked objects:
  2083 ;;		On entry : 0/0
  2084 ;;		On exit  : 0/0
  2085 ;;		Unchanged: 0/0
  2086 ;; Data sizes:     COMRAM   BANK0   BANK1   BANK2   BANK3   BANK4   BANK5   BANK6   BANK7   BANK8   BANK9  BANK10  BANK1
      +1  BANK12  BANK13  BANK14  BANK15
  2087 ;;      Params:         0       0       0       0       0       0       0       0       0       0       0       0       
      +0       0       0       0       0
  2088 ;;      Locals:         0       0       0       0       0       0       0       0       0       0       0       0       
      +0       0       0       0       0
  2089 ;;      Temps:          0       0       0       0       0       0       0       0       0       0       0       0       
      +0       0       0       0       0
  2090 ;;      Totals:         0       0       0       0       0       0       0       0       0       0       0       0       
      +0       0       0       0       0
  2091 ;;Total ram usage:        0 bytes
  2092 ;; Hardware stack levels used: 1
  2093 ;; Hardware stack levels required when called: 2
  2094 ;; This function calls:
  2095 ;;		_led_turn_off
  2096 ;; This function is called by:
  2097 ;;		_RB4_ISR
  2098 ;;		_RB5_ISR
  2099 ;;		_RB6_ISR
  2100 ;;		_RB7_ISR
  2101 ;; This function uses a non-reentrant model
  2102 ;;
  2103                           
  2104                           	psect	text11
  2105   001AC0                     __ptext11:
  2106                           	callstack 0
  2107   001AC0                     _RB5_APP_ISR_LOW:
  2108                           	callstack 24
  2109   001AC0                     
  2110                           ;application.c: 44:     led_turn_off(&led2);
  2111   001AC0  0E2F               	movlw	low _led2
  2112   001AC2  6E5B               	movwf	led_turn_off@led^0,c
  2113   001AC4  0E00               	movlw	high _led2
  2114   001AC6  6E5C               	movwf	(led_turn_off@led+1)^0,c
  2115   001AC8  EC81  F00B         	call	_led_turn_off	;wreg free
  2116   001ACC  0012               	return		;funcret
  2117   001ACE                     __end_of_RB5_APP_ISR_LOW:
  2118                           	callstack 0
  2119                           
  2120 ;; *************** function _RB4_APP_ISR_HIGH *****************
  2121 ;; Defined at:
  2122 ;;		line 31 in file "application.c"
  2123 ;; Parameters:    Size  Location     Type
  2124 ;;		None
  2125 ;; Auto vars:     Size  Location     Type
  2126 ;;		None
  2127 ;; Return value:  Size  Location     Type
  2128 ;;                  1    wreg      void 
  2129 ;; Registers used:
  2130 ;;		wreg, fsr2l, fsr2h, status,2, status,0, prodl, prodh, cstack
  2131 ;; Tracked objects:
  2132 ;;		On entry : 0/0
  2133 ;;		On exit  : 0/0
  2134 ;;		Unchanged: 0/0
  2135 ;; Data sizes:     COMRAM   BANK0   BANK1   BANK2   BANK3   BANK4   BANK5   BANK6   BANK7   BANK8   BANK9  BANK10  BANK1
      +1  BANK12  BANK13  BANK14  BANK15
  2136 ;;      Params:         0       0       0       0       0       0       0       0       0       0       0       0       
      +0       0       0       0       0
  2137 ;;      Locals:         0       0       0       0       0       0       0       0       0       0       0       0       
      +0       0       0       0       0
  2138 ;;      Temps:          0       0       0       0       0       0       0       0       0       0       0       0       
      +0       0       0       0       0
  2139 ;;      Totals:         0       0       0       0       0       0       0       0       0       0       0       0       
      +0       0       0       0       0
  2140 ;;Total ram usage:        0 bytes
  2141 ;; Hardware stack levels used: 1
  2142 ;; Hardware stack levels required when called: 2
  2143 ;; This function calls:
  2144 ;;		_led_turn_on
  2145 ;; This function is called by:
  2146 ;;		_RB4_ISR
  2147 ;;		_RB5_ISR
  2148 ;;		_RB6_ISR
  2149 ;;		_RB7_ISR
  2150 ;; This function uses a non-reentrant model
  2151 ;;
  2152                           
  2153                           	psect	text12
  2154   001ACE                     __ptext12:
  2155                           	callstack 0
  2156   001ACE                     _RB4_APP_ISR_HIGH:
  2157                           	callstack 24
  2158   001ACE                     
  2159                           ;application.c: 32:     led_turn_on(&led1);
  2160   001ACE  0E31               	movlw	low _led1
  2161   001AD0  6E5B               	movwf	led_turn_on@led^0,c
  2162   001AD2  0E00               	movlw	high _led1
  2163   001AD4  6E5C               	movwf	(led_turn_on@led+1)^0,c
  2164   001AD6  ECC2  F00B         	call	_led_turn_on	;wreg free
  2165   001ADA  0012               	return		;funcret
  2166   001ADC                     __end_of_RB4_APP_ISR_HIGH:
  2167                           	callstack 0
  2168                           
  2169 ;; *************** function _RB5_APP_ISR_HIGH *****************
  2170 ;; Defined at:
  2171 ;;		line 39 in file "application.c"
  2172 ;; Parameters:    Size  Location     Type
  2173 ;;		None
  2174 ;; Auto vars:     Size  Location     Type
  2175 ;;		None
  2176 ;; Return value:  Size  Location     Type
  2177 ;;                  1    wreg      void 
  2178 ;; Registers used:
  2179 ;;		wreg, fsr2l, fsr2h, status,2, status,0, prodl, prodh, cstack
  2180 ;; Tracked objects:
  2181 ;;		On entry : 0/0
  2182 ;;		On exit  : 0/0
  2183 ;;		Unchanged: 0/0
  2184 ;; Data sizes:     COMRAM   BANK0   BANK1   BANK2   BANK3   BANK4   BANK5   BANK6   BANK7   BANK8   BANK9  BANK10  BANK1
      +1  BANK12  BANK13  BANK14  BANK15
  2185 ;;      Params:         0       0       0       0       0       0       0       0       0       0       0       0       
      +0       0       0       0       0
  2186 ;;      Locals:         0       0       0       0       0       0       0       0       0       0       0       0       
      +0       0       0       0       0
  2187 ;;      Temps:          0       0       0       0       0       0       0       0       0       0       0       0       
      +0       0       0       0       0
  2188 ;;      Totals:         0       0       0       0       0       0       0       0       0       0       0       0       
      +0       0       0       0       0
  2189 ;;Total ram usage:        0 bytes
  2190 ;; Hardware stack levels used: 1
  2191 ;; Hardware stack levels required when called: 2
  2192 ;; This function calls:
  2193 ;;		_led_turn_on
  2194 ;; This function is called by:
  2195 ;;		_RB4_ISR
  2196 ;;		_RB5_ISR
  2197 ;;		_RB6_ISR
  2198 ;;		_RB7_ISR
  2199 ;; This function uses a non-reentrant model
  2200 ;;
  2201                           
  2202                           	psect	text13
  2203   001ADC                     __ptext13:
  2204                           	callstack 0
  2205   001ADC                     _RB5_APP_ISR_HIGH:
  2206                           	callstack 24
  2207   001ADC                     
  2208                           ;application.c: 40:     led_turn_on(&led2);
  2209   001ADC  0E2F               	movlw	low _led2
  2210   001ADE  6E5B               	movwf	led_turn_on@led^0,c
  2211   001AE0  0E00               	movlw	high _led2
  2212   001AE2  6E5C               	movwf	(led_turn_on@led+1)^0,c
  2213   001AE4  ECC2  F00B         	call	_led_turn_on	;wreg free
  2214   001AE8  0012               	return		;funcret
  2215   001AEA                     __end_of_RB5_APP_ISR_HIGH:
  2216                           	callstack 0
  2217                           
  2218 ;; *************** function _led_turn_off *****************
  2219 ;; Defined at:
  2220 ;;		line 68 in file "ECU_Layer/LED/ecu_led.c"
  2221 ;; Parameters:    Size  Location     Type
  2222 ;;  led             2   10[COMRAM] PTR const struct .
  2223 ;;		 -> led2(2), led1(2), 
  2224 ;; Auto vars:     Size  Location     Type
  2225 ;;  led_pin         1   13[COMRAM] struct .
  2226 ;;  ret             1    0        unsigned char 
  2227 ;; Return value:  Size  Location     Type
  2228 ;;                  1    wreg      unsigned char 
  2229 ;; Registers used:
  2230 ;;		wreg, fsr2l, fsr2h, status,2, status,0, prodl, prodh, cstack
  2231 ;; Tracked objects:
  2232 ;;		On entry : 0/0
  2233 ;;		On exit  : 0/0
  2234 ;;		Unchanged: 0/0
  2235 ;; Data sizes:     COMRAM   BANK0   BANK1   BANK2   BANK3   BANK4   BANK5   BANK6   BANK7   BANK8   BANK9  BANK10  BANK1
      +1  BANK12  BANK13  BANK14  BANK15
  2236 ;;      Params:         2       0       0       0       0       0       0       0       0       0       0       0       
      +0       0       0       0       0
  2237 ;;      Locals:         1       0       0       0       0       0       0       0       0       0       0       0       
      +0       0       0       0       0
  2238 ;;      Temps:          1       0       0       0       0       0       0       0       0       0       0       0       
      +0       0       0       0       0
  2239 ;;      Totals:         4       0       0       0       0       0       0       0       0       0       0       0       
      +0       0       0       0       0
  2240 ;;Total ram usage:        4 bytes
  2241 ;; Hardware stack levels used: 1
  2242 ;; Hardware stack levels required when called: 1
  2243 ;; This function calls:
  2244 ;;		_gpio_pin_write_logic
  2245 ;; This function is called by:
  2246 ;;		_RB4_APP_ISR_LOW
  2247 ;;		_RB5_APP_ISR_LOW
  2248 ;; This function uses a non-reentrant model
  2249 ;;
  2250                           
  2251                           	psect	text14
  2252   001702                     __ptext14:
  2253                           	callstack 0
  2254   001702                     _led_turn_off:
  2255                           	callstack 24
  2256   001702  505B               	movf	led_turn_off@led^0,w,c
  2257   001704  105C               	iorwf	(led_turn_off@led+1)^0,w,c
  2258   001706  A4D8               	btfss	status,2,c
  2259   001708  EF88  F00B         	goto	i2u183_41
  2260   00170C  EF8A  F00B         	goto	i2u183_40
  2261   001710                     i2u183_41:
  2262   001710  EF8C  F00B         	goto	i2l245
  2263   001714                     i2u183_40:
  2264   001714  EFC1  F00B         	goto	i2l249
  2265   001718                     i2l245:
  2266   001718  C04E  F05E         	movff	led_turn_off@F3058,led_turn_off@led_pin
  2267   00171C  C05B  FFD9         	movff	led_turn_off@led,fsr2l
  2268   001720  C05C  FFDA         	movff	led_turn_off@led+1,fsr2h
  2269   001724  50DF               	movf	223,w,c
  2270   001726  0B0F               	andlw	15
  2271   001728  6E5D               	movwf	??_led_turn_off^0,c
  2272   00172A  505E               	movf	led_turn_off@led_pin^0,w,c
  2273   00172C  185D               	xorwf	??_led_turn_off^0,w,c
  2274   00172E  0BF8               	andlw	-8
  2275   001730  185D               	xorwf	??_led_turn_off^0,w,c
  2276   001732  6E5E               	movwf	led_turn_off@led_pin^0,c
  2277   001734  C05B  FFD9         	movff	led_turn_off@led,fsr2l
  2278   001738  C05C  FFDA         	movff	led_turn_off@led+1,fsr2h
  2279   00173C  38DF               	swapf	223,w,c
  2280   00173E  0B07               	andlw	7
  2281   001740  6E5D               	movwf	??_led_turn_off^0,c
  2282   001742  465D               	rlncf	??_led_turn_off^0,f,c
  2283   001744  465D               	rlncf	??_led_turn_off^0,f,c
  2284   001746  465D               	rlncf	??_led_turn_off^0,f,c
  2285   001748  505E               	movf	led_turn_off@led_pin^0,w,c
  2286   00174A  185D               	xorwf	??_led_turn_off^0,w,c
  2287   00174C  0BC7               	andlw	-57
  2288   00174E  185D               	xorwf	??_led_turn_off^0,w,c
  2289   001750  6E5E               	movwf	led_turn_off@led_pin^0,c
  2290   001752  9C5E               	bcf	led_turn_off@led_pin^0,6,c
  2291   001754  EE20 F001          	lfsr	2,1
  2292   001758  505B               	movf	led_turn_off@led^0,w,c
  2293   00175A  26D9               	addwf	fsr2l,f,c
  2294   00175C  505C               	movf	(led_turn_off@led+1)^0,w,c
  2295   00175E  22DA               	addwfc	fsr2h,f,c
  2296   001760  50DF               	movf	indf2,w,c
  2297   001762  6E5D               	movwf	??_led_turn_off^0,c
  2298   001764  325D               	rrcf	??_led_turn_off^0,f,c
  2299   001766  325D               	rrcf	??_led_turn_off^0,f,c
  2300   001768  505E               	movf	led_turn_off@led_pin^0,w,c
  2301   00176A  185D               	xorwf	??_led_turn_off^0,w,c
  2302   00176C  0B7F               	andlw	-129
  2303   00176E  185D               	xorwf	??_led_turn_off^0,w,c
  2304   001770  6E5E               	movwf	led_turn_off@led_pin^0,c
  2305   001772  0E5E               	movlw	low led_turn_off@led_pin
  2306   001774  6E51               	movwf	gpio_pin_write_logic@pin_config^0,c
  2307   001776  0E00               	movlw	high led_turn_off@led_pin
  2308   001778  6E52               	movwf	(gpio_pin_write_logic@pin_config+1)^0,c
  2309   00177A  0E00               	movlw	0
  2310   00177C  6E53               	movwf	gpio_pin_write_logic@logic^0,c
  2311   00177E  ECA5  F00A         	call	_gpio_pin_write_logic	;wreg free
  2312   001782                     i2l249:
  2313   001782  0012               	return		;funcret
  2314   001784                     __end_of_led_turn_off:
  2315                           	callstack 0
  2316                           
  2317 ;; *************** function _led_turn_on *****************
  2318 ;; Defined at:
  2319 ;;		line 44 in file "ECU_Layer/LED/ecu_led.c"
  2320 ;; Parameters:    Size  Location     Type
  2321 ;;  led             2   10[COMRAM] PTR const struct .
  2322 ;;		 -> led2(2), led1(2), 
  2323 ;; Auto vars:     Size  Location     Type
  2324 ;;  led_pin         1   13[COMRAM] struct .
  2325 ;;  ret             1    0        unsigned char 
  2326 ;; Return value:  Size  Location     Type
  2327 ;;                  1    wreg      unsigned char 
  2328 ;; Registers used:
  2329 ;;		wreg, fsr2l, fsr2h, status,2, status,0, prodl, prodh, cstack
  2330 ;; Tracked objects:
  2331 ;;		On entry : 0/0
  2332 ;;		On exit  : 0/0
  2333 ;;		Unchanged: 0/0
  2334 ;; Data sizes:     COMRAM   BANK0   BANK1   BANK2   BANK3   BANK4   BANK5   BANK6   BANK7   BANK8   BANK9  BANK10  BANK1
      +1  BANK12  BANK13  BANK14  BANK15
  2335 ;;      Params:         2       0       0       0       0       0       0       0       0       0       0       0       
      +0       0       0       0       0
  2336 ;;      Locals:         1       0       0       0       0       0       0       0       0       0       0       0       
      +0       0       0       0       0
  2337 ;;      Temps:          1       0       0       0       0       0       0       0       0       0       0       0       
      +0       0       0       0       0
  2338 ;;      Totals:         4       0       0       0       0       0       0       0       0       0       0       0       
      +0       0       0       0       0
  2339 ;;Total ram usage:        4 bytes
  2340 ;; Hardware stack levels used: 1
  2341 ;; Hardware stack levels required when called: 1
  2342 ;; This function calls:
  2343 ;;		_gpio_pin_write_logic
  2344 ;; This function is called by:
  2345 ;;		_RB4_APP_ISR_HIGH
  2346 ;;		_RB5_APP_ISR_HIGH
  2347 ;; This function uses a non-reentrant model
  2348 ;;
  2349                           
  2350                           	psect	text15
  2351   001784                     __ptext15:
  2352                           	callstack 0
  2353   001784                     _led_turn_on:
  2354                           	callstack 24
  2355   001784  505B               	movf	led_turn_on@led^0,w,c
  2356   001786  105C               	iorwf	(led_turn_on@led+1)^0,w,c
  2357   001788  A4D8               	btfss	status,2,c
  2358   00178A  EFC9  F00B         	goto	i2u182_41
  2359   00178E  EFCB  F00B         	goto	i2u182_40
  2360   001792                     i2u182_41:
  2361   001792  EFCD  F00B         	goto	i2l238
  2362   001796                     i2u182_40:
  2363   001796  EF02  F00C         	goto	i2l242
  2364   00179A                     i2l238:
  2365   00179A  C04F  F05E         	movff	led_turn_on@F3053,led_turn_on@led_pin
  2366   00179E  C05B  FFD9         	movff	led_turn_on@led,fsr2l
  2367   0017A2  C05C  FFDA         	movff	led_turn_on@led+1,fsr2h
  2368   0017A6  50DF               	movf	223,w,c
  2369   0017A8  0B0F               	andlw	15
  2370   0017AA  6E5D               	movwf	??_led_turn_on^0,c
  2371   0017AC  505E               	movf	led_turn_on@led_pin^0,w,c
  2372   0017AE  185D               	xorwf	??_led_turn_on^0,w,c
  2373   0017B0  0BF8               	andlw	-8
  2374   0017B2  185D               	xorwf	??_led_turn_on^0,w,c
  2375   0017B4  6E5E               	movwf	led_turn_on@led_pin^0,c
  2376   0017B6  C05B  FFD9         	movff	led_turn_on@led,fsr2l
  2377   0017BA  C05C  FFDA         	movff	led_turn_on@led+1,fsr2h
  2378   0017BE  38DF               	swapf	223,w,c
  2379   0017C0  0B07               	andlw	7
  2380   0017C2  6E5D               	movwf	??_led_turn_on^0,c
  2381   0017C4  465D               	rlncf	??_led_turn_on^0,f,c
  2382   0017C6  465D               	rlncf	??_led_turn_on^0,f,c
  2383   0017C8  465D               	rlncf	??_led_turn_on^0,f,c
  2384   0017CA  505E               	movf	led_turn_on@led_pin^0,w,c
  2385   0017CC  185D               	xorwf	??_led_turn_on^0,w,c
  2386   0017CE  0BC7               	andlw	-57
  2387   0017D0  185D               	xorwf	??_led_turn_on^0,w,c
  2388   0017D2  6E5E               	movwf	led_turn_on@led_pin^0,c
  2389   0017D4  9C5E               	bcf	led_turn_on@led_pin^0,6,c
  2390   0017D6  EE20 F001          	lfsr	2,1
  2391   0017DA  505B               	movf	led_turn_on@led^0,w,c
  2392   0017DC  26D9               	addwf	fsr2l,f,c
  2393   0017DE  505C               	movf	(led_turn_on@led+1)^0,w,c
  2394   0017E0  22DA               	addwfc	fsr2h,f,c
  2395   0017E2  50DF               	movf	indf2,w,c
  2396   0017E4  6E5D               	movwf	??_led_turn_on^0,c
  2397   0017E6  325D               	rrcf	??_led_turn_on^0,f,c
  2398   0017E8  325D               	rrcf	??_led_turn_on^0,f,c
  2399   0017EA  505E               	movf	led_turn_on@led_pin^0,w,c
  2400   0017EC  185D               	xorwf	??_led_turn_on^0,w,c
  2401   0017EE  0B7F               	andlw	-129
  2402   0017F0  185D               	xorwf	??_led_turn_on^0,w,c
  2403   0017F2  6E5E               	movwf	led_turn_on@led_pin^0,c
  2404   0017F4  0E5E               	movlw	low led_turn_on@led_pin
  2405   0017F6  6E51               	movwf	gpio_pin_write_logic@pin_config^0,c
  2406   0017F8  0E00               	movlw	high led_turn_on@led_pin
  2407   0017FA  6E52               	movwf	(gpio_pin_write_logic@pin_config+1)^0,c
  2408   0017FC  0E01               	movlw	1
  2409   0017FE  6E53               	movwf	gpio_pin_write_logic@logic^0,c
  2410   001800  ECA5  F00A         	call	_gpio_pin_write_logic	;wreg free
  2411   001804                     i2l242:
  2412   001804  0012               	return		;funcret
  2413   001806                     __end_of_led_turn_on:
  2414                           	callstack 0
  2415                           
  2416 ;; *************** function _gpio_pin_write_logic *****************
  2417 ;; Defined at:
  2418 ;;		line 74 in file "MCAL_Layer/GPIO/hal_gpio.c"
  2419 ;; Parameters:    Size  Location     Type
  2420 ;;  pin_config      2    0[COMRAM] PTR const struct .
  2421 ;;		 -> relay_turn_off@pin_obj(1), relay_turn_on@pin_obj(1), relay_initialize@pin_obj(1), led_turn_off@led_pin(1), 
  2422 ;;		 -> led_turn_on@led_pin(1), 
  2423 ;;  logic           1    2[COMRAM] enum E2968
  2424 ;; Auto vars:     Size  Location     Type
  2425 ;;  ret             1    9[COMRAM] unsigned char 
  2426 ;; Return value:  Size  Location     Type
  2427 ;;                  1    wreg      unsigned char 
  2428 ;; Registers used:
  2429 ;;		wreg, fsr2l, fsr2h, status,2, status,0, prodl, prodh
  2430 ;; Tracked objects:
  2431 ;;		On entry : 0/0
  2432 ;;		On exit  : 0/0
  2433 ;;		Unchanged: 0/0
  2434 ;; Data sizes:     COMRAM   BANK0   BANK1   BANK2   BANK3   BANK4   BANK5   BANK6   BANK7   BANK8   BANK9  BANK10  BANK1
      +1  BANK12  BANK13  BANK14  BANK15
  2435 ;;      Params:         3       0       0       0       0       0       0       0       0       0       0       0       
      +0       0       0       0       0
  2436 ;;      Locals:         1       0       0       0       0       0       0       0       0       0       0       0       
      +0       0       0       0       0
  2437 ;;      Temps:          6       0       0       0       0       0       0       0       0       0       0       0       
      +0       0       0       0       0
  2438 ;;      Totals:        10       0       0       0       0       0       0       0       0       0       0       0       
      +0       0       0       0       0
  2439 ;;Total ram usage:       10 bytes
  2440 ;; Hardware stack levels used: 1
  2441 ;; This function calls:
  2442 ;;		Nothing
  2443 ;; This function is called by:
  2444 ;;		_led_turn_on
  2445 ;;		_led_turn_off
  2446 ;;		_keypad_get_value
  2447 ;;		_lcd_4bit_send_command
  2448 ;;		_lcd_4bit_send_char_data
  2449 ;;		_lcd_8bit_send_command
  2450 ;;		_lcd_8bit_send_char_data
  2451 ;;		_lcd_send_4bits
  2452 ;;		_lcd_4bit_send_enable
  2453 ;;		_lcd_8bit_send_enable
  2454 ;;		_relay_turn_on
  2455 ;;		_relay_turn_off
  2456 ;;		_dc_motor_move_right
  2457 ;;		_dc_motor_move_left
  2458 ;;		_dc_motor_stop
  2459 ;;		_seven_segment_write_number
  2460 ;;		_gpio_pin_initialize
  2461 ;; This function uses a non-reentrant model
  2462 ;;
  2463                           
  2464                           	psect	text16
  2465   00154A                     __ptext16:
  2466                           	callstack 0
  2467   00154A                     _gpio_pin_write_logic:
  2468                           	callstack 24
  2469   00154A                     
  2470                           ;MCAL_Layer/GPIO/hal_gpio.c: 75:     std_ReturnType ret = (std_ReturnType)0x01;
  2471   00154A  0E01               	movlw	1
  2472   00154C  6E5A               	movwf	gpio_pin_write_logic@ret^0,c
  2473   00154E                     
  2474                           ;MCAL_Layer/GPIO/hal_gpio.c: 76:     if(pin_config == ((void*)0) || pin_config->pin > 8 
      +                          -1){
  2475   00154E  5051               	movf	gpio_pin_write_logic@pin_config^0,w,c
  2476   001550  1052               	iorwf	(gpio_pin_write_logic@pin_config+1)^0,w,c
  2477   001552  B4D8               	btfsc	status,2,c
  2478   001554  EFAE  F00A         	goto	i2u178_41
  2479   001558  EFB0  F00A         	goto	i2u178_40
  2480   00155C                     i2u178_41:
  2481   00155C  EFC1  F00A         	goto	i2l2744
  2482   001560                     i2u178_40:
  2483   001560  C051  FFD9         	movff	gpio_pin_write_logic@pin_config,fsr2l
  2484   001564  C052  FFDA         	movff	gpio_pin_write_logic@pin_config+1,fsr2h
  2485   001568  30DF               	rrcf	223,w,c
  2486   00156A  32E8               	rrcf	wreg,f,c
  2487   00156C  32E8               	rrcf	wreg,f,c
  2488   00156E  0B07               	andlw	7
  2489   001570  6E54               	movwf	??_gpio_pin_write_logic^0,c
  2490   001572  0E07               	movlw	7
  2491   001574  6454               	cpfsgt	??_gpio_pin_write_logic^0,c
  2492   001576  EFBF  F00A         	goto	i2u179_41
  2493   00157A  EFC1  F00A         	goto	i2u179_40
  2494   00157E                     i2u179_41:
  2495   00157E  EF24  F00B         	goto	i2l2752
  2496   001582                     i2u179_40:
  2497   001582                     i2l2744:
  2498                           
  2499                           ;MCAL_Layer/GPIO/hal_gpio.c: 77:         ret = (std_ReturnType)0x00;
  2500   001582  0E00               	movlw	0
  2501   001584  6E5A               	movwf	gpio_pin_write_logic@ret^0,c
  2502                           
  2503                           ;MCAL_Layer/GPIO/hal_gpio.c: 78:     }
  2504   001586  EF39  F00B         	goto	i2l2754
  2505   00158A                     i2l2746:
  2506                           
  2507                           ;MCAL_Layer/GPIO/hal_gpio.c: 82:                 (*lat_register[pin_config->port] &= ~((
      +                          uint8)1 << pin_config->pin));
  2508   00158A  C051  FFD9         	movff	gpio_pin_write_logic@pin_config,fsr2l
  2509   00158E  C052  FFDA         	movff	gpio_pin_write_logic@pin_config+1,fsr2h
  2510   001592  30DF               	rrcf	223,w,c
  2511   001594  32E8               	rrcf	wreg,f,c
  2512   001596  32E8               	rrcf	wreg,f,c
  2513   001598  0B07               	andlw	7
  2514   00159A  6E54               	movwf	??_gpio_pin_write_logic^0,c
  2515   00159C  0E01               	movlw	1
  2516   00159E  6E55               	movwf	(??_gpio_pin_write_logic+1)^0,c
  2517   0015A0  2A54               	incf	??_gpio_pin_write_logic^0,f,c
  2518   0015A2  EFD5  F00A         	goto	i2u180_44
  2519   0015A6                     i2u180_45:
  2520   0015A6  90D8               	bcf	status,0,c
  2521   0015A8  3655               	rlcf	(??_gpio_pin_write_logic+1)^0,f,c
  2522   0015AA                     i2u180_44:
  2523   0015AA  2E54               	decfsz	??_gpio_pin_write_logic^0,f,c
  2524   0015AC  EFD3  F00A         	goto	i2u180_45
  2525   0015B0  5055               	movf	(??_gpio_pin_write_logic+1)^0,w,c
  2526   0015B2  0AFF               	xorlw	255
  2527   0015B4  6E56               	movwf	(??_gpio_pin_write_logic+2)^0,c
  2528   0015B6  C051  FFD9         	movff	gpio_pin_write_logic@pin_config,fsr2l
  2529   0015BA  C052  FFDA         	movff	gpio_pin_write_logic@pin_config+1,fsr2h
  2530   0015BE  50DF               	movf	223,w,c
  2531   0015C0  0B07               	andlw	7
  2532   0015C2  6E57               	movwf	(??_gpio_pin_write_logic+3)^0,c
  2533   0015C4  5057               	movf	(??_gpio_pin_write_logic+3)^0,w,c
  2534   0015C6  0D02               	mullw	2
  2535   0015C8  0E0B               	movlw	low _lat_register
  2536   0015CA  24F3               	addwf	243,w,c
  2537   0015CC  6ED9               	movwf	fsr2l,c
  2538   0015CE  0E00               	movlw	high _lat_register
  2539   0015D0  20F4               	addwfc	prodh,w,c
  2540   0015D2  6EDA               	movwf	fsr2h,c
  2541   0015D4  CFDE F058          	movff	postinc2,??_gpio_pin_write_logic+4
  2542   0015D8  CFDD F059          	movff	postdec2,??_gpio_pin_write_logic+5
  2543   0015DC  C058  FFD9         	movff	??_gpio_pin_write_logic+4,fsr2l
  2544   0015E0  C059  FFDA         	movff	??_gpio_pin_write_logic+5,fsr2h
  2545   0015E4  5056               	movf	(??_gpio_pin_write_logic+2)^0,w,c
  2546   0015E6  16DF               	andwf	indf2,f,c
  2547                           
  2548                           ;MCAL_Layer/GPIO/hal_gpio.c: 83:                 break;
  2549   0015E8  EF39  F00B         	goto	i2l2754
  2550   0015EC                     i2l2748:
  2551                           
  2552                           ;MCAL_Layer/GPIO/hal_gpio.c: 85:                 (*lat_register[pin_config->port] |= ((u
      +                          int8)1 << pin_config->pin));
  2553   0015EC  C051  FFD9         	movff	gpio_pin_write_logic@pin_config,fsr2l
  2554   0015F0  C052  FFDA         	movff	gpio_pin_write_logic@pin_config+1,fsr2h
  2555   0015F4  30DF               	rrcf	223,w,c
  2556   0015F6  32E8               	rrcf	wreg,f,c
  2557   0015F8  32E8               	rrcf	wreg,f,c
  2558   0015FA  0B07               	andlw	7
  2559   0015FC  6E54               	movwf	??_gpio_pin_write_logic^0,c
  2560   0015FE  0E01               	movlw	1
  2561   001600  6E55               	movwf	(??_gpio_pin_write_logic+1)^0,c
  2562   001602  2A54               	incf	??_gpio_pin_write_logic^0,f,c
  2563   001604  EF06  F00B         	goto	i2u181_44
  2564   001608                     i2u181_45:
  2565   001608  90D8               	bcf	status,0,c
  2566   00160A  3655               	rlcf	(??_gpio_pin_write_logic+1)^0,f,c
  2567   00160C                     i2u181_44:
  2568   00160C  2E54               	decfsz	??_gpio_pin_write_logic^0,f,c
  2569   00160E  EF04  F00B         	goto	i2u181_45
  2570   001612  C051  FFD9         	movff	gpio_pin_write_logic@pin_config,fsr2l
  2571   001616  C052  FFDA         	movff	gpio_pin_write_logic@pin_config+1,fsr2h
  2572   00161A  50DF               	movf	223,w,c
  2573   00161C  0B07               	andlw	7
  2574   00161E  6E56               	movwf	(??_gpio_pin_write_logic+2)^0,c
  2575   001620  5056               	movf	(??_gpio_pin_write_logic+2)^0,w,c
  2576   001622  0D02               	mullw	2
  2577   001624  0E0B               	movlw	low _lat_register
  2578   001626  24F3               	addwf	243,w,c
  2579   001628  6ED9               	movwf	fsr2l,c
  2580   00162A  0E00               	movlw	high _lat_register
  2581   00162C  20F4               	addwfc	prodh,w,c
  2582   00162E  6EDA               	movwf	fsr2h,c
  2583   001630  CFDE F057          	movff	postinc2,??_gpio_pin_write_logic+3
  2584   001634  CFDD F058          	movff	postdec2,??_gpio_pin_write_logic+4
  2585   001638  C057  FFD9         	movff	??_gpio_pin_write_logic+3,fsr2l
  2586   00163C  C058  FFDA         	movff	??_gpio_pin_write_logic+4,fsr2h
  2587   001640  5055               	movf	(??_gpio_pin_write_logic+1)^0,w,c
  2588   001642  12DF               	iorwf	indf2,f,c
  2589                           
  2590                           ;MCAL_Layer/GPIO/hal_gpio.c: 86:                 break;
  2591   001644  EF39  F00B         	goto	i2l2754
  2592   001648                     i2l2752:
  2593   001648  5053               	movf	gpio_pin_write_logic@logic^0,w,c
  2594   00164A  6E54               	movwf	??_gpio_pin_write_logic^0,c
  2595   00164C  6A55               	clrf	(??_gpio_pin_write_logic+1)^0,c
  2596                           
  2597                           ; Switch on 2 bytes has been partitioned into a top level switch of size 1, and 1 sub-sw
      +                          itches
  2598                           ; Switch size 1, requested type "simple"
  2599                           ; Number of cases is 1, Range of values is 0 to 0
  2600                           ; switch strategies available:
  2601                           ; Name         Instructions Cycles
  2602                           ; simple_byte            4     3 (average)
  2603                           ;	Chosen strategy is simple_byte
  2604   00164E  5055               	movf	(??_gpio_pin_write_logic+1)^0,w,c
  2605   001650  0A00               	xorlw	0	; case 0
  2606   001652  B4D8               	btfsc	status,2,c
  2607   001654  EF2E  F00B         	goto	i2l4008
  2608   001658  EFC1  F00A         	goto	i2l2744
  2609   00165C                     i2l4008:
  2610                           
  2611                           ; Switch size 1, requested type "simple"
  2612                           ; Number of cases is 2, Range of values is 0 to 1
  2613                           ; switch strategies available:
  2614                           ; Name         Instructions Cycles
  2615                           ; simple_byte            7     4 (average)
  2616                           ;	Chosen strategy is simple_byte
  2617   00165C  5054               	movf	??_gpio_pin_write_logic^0,w,c
  2618   00165E  0A00               	xorlw	0	; case 0
  2619   001660  B4D8               	btfsc	status,2,c
  2620   001662  EFC5  F00A         	goto	i2l2746
  2621   001666  0A01               	xorlw	1	; case 1
  2622   001668  B4D8               	btfsc	status,2,c
  2623   00166A  EFF6  F00A         	goto	i2l2748
  2624   00166E  EFC1  F00A         	goto	i2l2744
  2625   001672                     i2l2754:
  2626                           
  2627                           ;MCAL_Layer/GPIO/hal_gpio.c: 90:     return ret;
  2628   001672  505A               	movf	gpio_pin_write_logic@ret^0,w,c
  2629   001674  0012               	return		;funcret
  2630   001676                     __end_of_gpio_pin_write_logic:
  2631                           	callstack 0
  2632                           
  2633 ;; *************** function _INT2_ISR *****************
  2634 ;; Defined at:
  2635 ;;		line 90 in file "MCAL_Layer/Interrupt/mcal_external_interrupt.c"
  2636 ;; Parameters:    Size  Location     Type
  2637 ;;		None
  2638 ;; Auto vars:     Size  Location     Type
  2639 ;;		None
  2640 ;; Return value:  Size  Location     Type
  2641 ;;                  1    wreg      void 
  2642 ;; Registers used:
  2643 ;;		None
  2644 ;; Tracked objects:
  2645 ;;		On entry : 0/0
  2646 ;;		On exit  : 0/0
  2647 ;;		Unchanged: 0/0
  2648 ;; Data sizes:     COMRAM   BANK0   BANK1   BANK2   BANK3   BANK4   BANK5   BANK6   BANK7   BANK8   BANK9  BANK10  BANK1
      +1  BANK12  BANK13  BANK14  BANK15
  2649 ;;      Params:         0       0       0       0       0       0       0       0       0       0       0       0       
      +0       0       0       0       0
  2650 ;;      Locals:         0       0       0       0       0       0       0       0       0       0       0       0       
      +0       0       0       0       0
  2651 ;;      Temps:          0       0       0       0       0       0       0       0       0       0       0       0       
      +0       0       0       0       0
  2652 ;;      Totals:         0       0       0       0       0       0       0       0       0       0       0       0       
      +0       0       0       0       0
  2653 ;;Total ram usage:        0 bytes
  2654 ;; Hardware stack levels used: 1
  2655 ;; This function calls:
  2656 ;;		Nothing
  2657 ;; This function is called by:
  2658 ;;		_InterruptNoPriority
  2659 ;; This function uses a non-reentrant model
  2660 ;;
  2661                           
  2662                           	psect	text17
  2663   001AEA                     __ptext17:
  2664                           	callstack 0
  2665   001AEA                     _INT2_ISR:
  2666                           	callstack 27
  2667   001AEA                     
  2668                           ;MCAL_Layer/Interrupt/mcal_external_interrupt.c: 92:     (INTCON3bits.INT2IF = 0);
  2669   001AEA  92F0               	bcf	240,1,c	;volatile
  2670   001AEC  0012               	return		;funcret
  2671   001AEE                     __end_of_INT2_ISR:
  2672                           	callstack 0
  2673                           
  2674 ;; *************** function _INT1_ISR *****************
  2675 ;; Defined at:
  2676 ;;		line 79 in file "MCAL_Layer/Interrupt/mcal_external_interrupt.c"
  2677 ;; Parameters:    Size  Location     Type
  2678 ;;		None
  2679 ;; Auto vars:     Size  Location     Type
  2680 ;;		None
  2681 ;; Return value:  Size  Location     Type
  2682 ;;                  1    wreg      void 
  2683 ;; Registers used:
  2684 ;;		None
  2685 ;; Tracked objects:
  2686 ;;		On entry : 0/0
  2687 ;;		On exit  : 0/0
  2688 ;;		Unchanged: 0/0
  2689 ;; Data sizes:     COMRAM   BANK0   BANK1   BANK2   BANK3   BANK4   BANK5   BANK6   BANK7   BANK8   BANK9  BANK10  BANK1
      +1  BANK12  BANK13  BANK14  BANK15
  2690 ;;      Params:         0       0       0       0       0       0       0       0       0       0       0       0       
      +0       0       0       0       0
  2691 ;;      Locals:         0       0       0       0       0       0       0       0       0       0       0       0       
      +0       0       0       0       0
  2692 ;;      Temps:          0       0       0       0       0       0       0       0       0       0       0       0       
      +0       0       0       0       0
  2693 ;;      Totals:         0       0       0       0       0       0       0       0       0       0       0       0       
      +0       0       0       0       0
  2694 ;;Total ram usage:        0 bytes
  2695 ;; Hardware stack levels used: 1
  2696 ;; This function calls:
  2697 ;;		Nothing
  2698 ;; This function is called by:
  2699 ;;		_InterruptNoPriority
  2700 ;; This function uses a non-reentrant model
  2701 ;;
  2702                           
  2703                           	psect	text18
  2704   001AEE                     __ptext18:
  2705                           	callstack 0
  2706   001AEE                     _INT1_ISR:
  2707                           	callstack 27
  2708   001AEE                     
  2709                           ;MCAL_Layer/Interrupt/mcal_external_interrupt.c: 81:     (INTCON3bits.INT1IF = 0);
  2710   001AEE  90F0               	bcf	240,0,c	;volatile
  2711   001AF0  0012               	return		;funcret
  2712   001AF2                     __end_of_INT1_ISR:
  2713                           	callstack 0
  2714                           
  2715 ;; *************** function _INT0_ISR *****************
  2716 ;; Defined at:
  2717 ;;		line 67 in file "MCAL_Layer/Interrupt/mcal_external_interrupt.c"
  2718 ;; Parameters:    Size  Location     Type
  2719 ;;		None
  2720 ;; Auto vars:     Size  Location     Type
  2721 ;;		None
  2722 ;; Return value:  Size  Location     Type
  2723 ;;                  1    wreg      void 
  2724 ;; Registers used:
  2725 ;;		None
  2726 ;; Tracked objects:
  2727 ;;		On entry : 0/0
  2728 ;;		On exit  : 0/0
  2729 ;;		Unchanged: 0/0
  2730 ;; Data sizes:     COMRAM   BANK0   BANK1   BANK2   BANK3   BANK4   BANK5   BANK6   BANK7   BANK8   BANK9  BANK10  BANK1
      +1  BANK12  BANK13  BANK14  BANK15
  2731 ;;      Params:         0       0       0       0       0       0       0       0       0       0       0       0       
      +0       0       0       0       0
  2732 ;;      Locals:         0       0       0       0       0       0       0       0       0       0       0       0       
      +0       0       0       0       0
  2733 ;;      Temps:          0       0       0       0       0       0       0       0       0       0       0       0       
      +0       0       0       0       0
  2734 ;;      Totals:         0       0       0       0       0       0       0       0       0       0       0       0       
      +0       0       0       0       0
  2735 ;;Total ram usage:        0 bytes
  2736 ;; Hardware stack levels used: 1
  2737 ;; This function calls:
  2738 ;;		Nothing
  2739 ;; This function is called by:
  2740 ;;		_InterruptNoPriority
  2741 ;; This function uses a non-reentrant model
  2742 ;;
  2743                           
  2744                           	psect	text19
  2745   001AF2                     __ptext19:
  2746                           	callstack 0
  2747   001AF2                     _INT0_ISR:
  2748                           	callstack 27
  2749   001AF2                     
  2750                           ;MCAL_Layer/Interrupt/mcal_external_interrupt.c: 69:     (INTCONbits.INT0IF = 0);
  2751   001AF2  92F2               	bcf	242,1,c	;volatile
  2752   001AF4  0012               	return		;funcret
  2753   001AF6                     __end_of_INT0_ISR:
  2754                           	callstack 0
  2755                           
  2756                           	psect	text20
  2757   000000                     __ptext20:
  2758                           	callstack 0
  2759   000000                     
  2760                           	psect	rparam
  2761   000000                     
  2762                           	psect	temp
  2763   00006A                     btemp:
  2764                           	callstack 0
  2765   00006A                     	ds	1
  2766   000000                     int$flags	set	btemp
  2767   000000                     wtemp8	set	btemp+1
  2768   000000                     ttemp5	set	btemp+1
  2769   000000                     ttemp6	set	btemp+4
  2770   000000                     ttemp7	set	btemp+8
  2771                           
  2772                           	psect	config
  2773                           
  2774                           ; Padding undefined space
  2775   300000                     	org	3145728
  2776   300000  FF                 	db	255
  2777                           
  2778                           ;Config register CONFIG1H @ 0x300001
  2779                           ;	Oscillator Selection bits
  2780                           ;	OSC = HS, HS oscillator
  2781                           ;	Fail-Safe Clock Monitor Enable bit
  2782                           ;	FCMEN = OFF, Fail-Safe Clock Monitor disabled
  2783                           ;	Internal/External Oscillator Switchover bit
  2784                           ;	IESO = OFF, Oscillator Switchover mode disabled
  2785   300001                     	org	3145729
  2786   300001  02                 	db	2
  2787                           
  2788                           ;Config register CONFIG2L @ 0x300002
  2789                           ;	Power-up Timer Enable bit
  2790                           ;	PWRT = OFF, PWRT disabled
  2791                           ;	Brown-out Reset Enable bits
  2792                           ;	BOREN = OFF, Brown-out Reset disabled in hardware and software
  2793                           ;	Brown Out Reset Voltage bits
  2794                           ;	BORV = 1, 
  2795   300002                     	org	3145730
  2796   300002  09                 	db	9
  2797                           
  2798                           ;Config register CONFIG2H @ 0x300003
  2799                           ;	Watchdog Timer Enable bit
  2800                           ;	WDT = OFF, WDT disabled (control is placed on the SWDTEN bit)
  2801                           ;	Watchdog Timer Postscale Select bits
  2802                           ;	WDTPS = 32768, 1:32768
  2803   300003                     	org	3145731
  2804   300003  1E                 	db	30
  2805                           
  2806                           ; Padding undefined space
  2807   300004                     	org	3145732
  2808   300004  FF                 	db	255
  2809                           
  2810                           ;Config register CONFIG3H @ 0x300005
  2811                           ;	CCP2 MUX bit
  2812                           ;	CCP2MX = PORTC, CCP2 input/output is multiplexed with RC1
  2813                           ;	PORTB A/D Enable bit
  2814                           ;	PBADEN = OFF, PORTB<4:0> pins are configured as digital I/O on Reset
  2815                           ;	Low-Power Timer1 Oscillator Enable bit
  2816                           ;	LPT1OSC = OFF, Timer1 configured for higher power operation
  2817                           ;	MCLR Pin Enable bit
  2818                           ;	MCLRE = ON, MCLR pin enabled; RE3 input pin disabled
  2819   300005                     	org	3145733
  2820   300005  81                 	db	129
  2821                           
  2822                           ;Config register CONFIG4L @ 0x300006
  2823                           ;	Stack Full/Underflow Reset Enable bit
  2824                           ;	STVREN = ON, Stack full/underflow will cause Reset
  2825                           ;	Single-Supply ICSP Enable bit
  2826                           ;	LVP = OFF, Single-Supply ICSP disabled
  2827                           ;	Extended Instruction Set Enable bit
  2828                           ;	XINST = OFF, Instruction set extension and Indexed Addressing mode disabled (Legacy mo
      +                          de)
  2829                           ;	Background Debugger Enable bit
  2830                           ;	DEBUG = 0x1, unprogrammed default
  2831   300006                     	org	3145734
  2832   300006  81                 	db	129
  2833                           
  2834                           ; Padding undefined space
  2835   300007                     	org	3145735
  2836   300007  FF                 	db	255
  2837                           
  2838                           ;Config register CONFIG5L @ 0x300008
  2839                           ;	Code Protection bit
  2840                           ;	CP0 = OFF, Block 0 (000800-003FFFh) not code-protected
  2841                           ;	Code Protection bit
  2842                           ;	CP1 = OFF, Block 1 (004000-007FFFh) not code-protected
  2843                           ;	Code Protection bit
  2844                           ;	CP2 = OFF, Block 2 (008000-00BFFFh) not code-protected
  2845                           ;	Code Protection bit
  2846                           ;	CP3 = OFF, Block 3 (00C000-00FFFFh) not code-protected
  2847   300008                     	org	3145736
  2848   300008  0F                 	db	15
  2849                           
  2850                           ;Config register CONFIG5H @ 0x300009
  2851                           ;	Boot Block Code Protection bit
  2852                           ;	CPB = OFF, Boot block (000000-0007FFh) not code-protected
  2853                           ;	Data EEPROM Code Protection bit
  2854                           ;	CPD = OFF, Data EEPROM not code-protected
  2855   300009                     	org	3145737
  2856   300009  C0                 	db	192
  2857                           
  2858                           ;Config register CONFIG6L @ 0x30000A
  2859                           ;	Write Protection bit
  2860                           ;	WRT0 = OFF, Block 0 (000800-003FFFh) not write-protected
  2861                           ;	Write Protection bit
  2862                           ;	WRT1 = OFF, Block 1 (004000-007FFFh) not write-protected
  2863                           ;	Write Protection bit
  2864                           ;	WRT2 = OFF, Block 2 (008000-00BFFFh) not write-protected
  2865                           ;	Write Protection bit
  2866                           ;	WRT3 = OFF, Block 3 (00C000-00FFFFh) not write-protected
  2867   30000A                     	org	3145738
  2868   30000A  0F                 	db	15
  2869                           
  2870                           ;Config register CONFIG6H @ 0x30000B
  2871                           ;	Configuration Register Write Protection bit
  2872                           ;	WRTC = OFF, Configuration registers (300000-3000FFh) not write-protected
  2873                           ;	Boot Block Write Protection bit
  2874                           ;	WRTB = OFF, Boot Block (000000-0007FFh) not write-protected
  2875                           ;	Data EEPROM Write Protection bit
  2876                           ;	WRTD = OFF, Data EEPROM not write-protected
  2877   30000B                     	org	3145739
  2878   30000B  E0                 	db	224
  2879                           
  2880                           ;Config register CONFIG7L @ 0x30000C
  2881                           ;	Table Read Protection bit
  2882                           ;	EBTR0 = OFF, Block 0 (000800-003FFFh) not protected from table reads executed in other
      +                           blocks
  2883                           ;	Table Read Protection bit
  2884                           ;	EBTR1 = OFF, Block 1 (004000-007FFFh) not protected from table reads executed in other
      +                           blocks
  2885                           ;	Table Read Protection bit
  2886                           ;	EBTR2 = OFF, Block 2 (008000-00BFFFh) not protected from table reads executed in other
      +                           blocks
  2887                           ;	Table Read Protection bit
  2888                           ;	EBTR3 = OFF, Block 3 (00C000-00FFFFh) not protected from table reads executed in other
      +                           blocks
  2889   30000C                     	org	3145740
  2890   30000C  0F                 	db	15
  2891                           
  2892                           ;Config register CONFIG7H @ 0x30000D
  2893                           ;	Boot Block Table Read Protection bit
  2894                           ;	EBTRB = OFF, Boot Block (000000-0007FFh) not protected from table reads executed in ot
      +                          her blocks
  2895   30000D                     	org	3145741
  2896   30000D  40                 	db	64
  2897                           tosu	equ	0xFFF
  2898                           tosh	equ	0xFFE
  2899                           tosl	equ	0xFFD
  2900                           stkptr	equ	0xFFC
  2901                           pclatu	equ	0xFFB
  2902                           pclath	equ	0xFFA
  2903                           pcl	equ	0xFF9
  2904                           tblptru	equ	0xFF8
  2905                           tblptrh	equ	0xFF7
  2906                           tblptrl	equ	0xFF6
  2907                           tablat	equ	0xFF5
  2908                           prodh	equ	0xFF4
  2909                           prodl	equ	0xFF3
  2910                           indf0	equ	0xFEF
  2911                           postinc0	equ	0xFEE
  2912                           postdec0	equ	0xFED
  2913                           preinc0	equ	0xFEC
  2914                           plusw0	equ	0xFEB
  2915                           fsr0h	equ	0xFEA
  2916                           fsr0l	equ	0xFE9
  2917                           wreg	equ	0xFE8
  2918                           indf1	equ	0xFE7
  2919                           postinc1	equ	0xFE6
  2920                           postdec1	equ	0xFE5
  2921                           preinc1	equ	0xFE4
  2922                           plusw1	equ	0xFE3
  2923                           fsr1h	equ	0xFE2
  2924                           fsr1l	equ	0xFE1
  2925                           bsr	equ	0xFE0
  2926                           indf2	equ	0xFDF
  2927                           postinc2	equ	0xFDE
  2928                           postdec2	equ	0xFDD
  2929                           preinc2	equ	0xFDC
  2930                           plusw2	equ	0xFDB
  2931                           fsr2h	equ	0xFDA
  2932                           fsr2l	equ	0xFD9
  2933                           status	equ	0xFD8

Data Sizes:
    Strings     3
    Constant    16
    Data        50
    BSS         30
    Persistent  1
    Stack       0

Auto Spaces:
    Space          Size  Autos    Used
    COMRAM          126     24     105
    BANK0           128     11      11
    BANK1           256      0       0
    BANK2           256      0       0
    BANK3           256      0       0
    BANK4           256      0       0
    BANK5           256      0       0
    BANK6           256      0       0
    BANK7           256      0       0
    BANK8           256      0       0
    BANK9           256      0       0
    BANK10          256      0       0
    BANK11          256      0       0
    BANK12          256      0       0
    BANK13          256      0       0
    BANK14          256      0       0
    BANK15          128      0       0

Pointer List with Targets:

    vfprintf$2	PTR PTR void  size(2) Largest target is 2
		 -> sprintf@ap(COMRAM[2]), 

    vfprintf$1	PTR const unsigned char  size(2) Largest target is 3
		 -> STR_3(CODE[3]), STR_2(CODE[3]), STR_1(CODE[3]), 

    vfprintf$0	PTR struct _IO_FILE size(2) Largest target is 12
		 -> sprintf@f(COMRAM[12]), 

    S1815$source	PTR const unsigned char  size(2) Largest target is 0

    f...source	PTR const unsigned char  size(2) Largest target is 0

    S1815$buffer	PTR unsigned char  size(2) Largest target is 0

    f...buffer	PTR unsigned char  size(2) Largest target is 0

    obj_rb5.INTERRUPT_HANDLER_LOW	PTR FTN()void  size(2) Largest target is 1
		 -> RB5_APP_ISR_LOW(), RB4_APP_ISR_LOW(), 

    obj_rb5.INTERRUPT_HANDLER_HIGH	PTR FTN()void  size(2) Largest target is 1
		 -> RB5_APP_ISR_HIGH(), RB4_APP_ISR_HIGH(), 

    obj_rb4.INTERRUPT_HANDLER_LOW	PTR FTN()void  size(2) Largest target is 1
		 -> RB5_APP_ISR_LOW(), RB4_APP_ISR_LOW(), 

    obj_rb4.INTERRUPT_HANDLER_HIGH	PTR FTN()void  size(2) Largest target is 1
		 -> RB5_APP_ISR_HIGH(), RB4_APP_ISR_HIGH(), 

    RB7_InterruptHandler_LOW	PTR FTN()void  size(2) Largest target is 1
		 -> RB5_APP_ISR_LOW(), RB4_APP_ISR_LOW(), NULL(), 

    RB7_InterruptHandler_HIGH	PTR FTN()void  size(2) Largest target is 1
		 -> RB5_APP_ISR_HIGH(), RB4_APP_ISR_HIGH(), NULL(), 

    RB6_InterruptHandler_LOW	PTR FTN()void  size(2) Largest target is 1
		 -> RB5_APP_ISR_LOW(), RB4_APP_ISR_LOW(), NULL(), 

    RB6_InterruptHandler_HIGH	PTR FTN()void  size(2) Largest target is 1
		 -> RB5_APP_ISR_HIGH(), RB4_APP_ISR_HIGH(), NULL(), 

    RB5_InterruptHandler_LOW	PTR FTN()void  size(2) Largest target is 1
		 -> RB5_APP_ISR_LOW(), RB4_APP_ISR_LOW(), NULL(), 

    RB5_InterruptHandler_HIGH	PTR FTN()void  size(2) Largest target is 1
		 -> RB5_APP_ISR_HIGH(), RB4_APP_ISR_HIGH(), NULL(), 

    RB4_InterruptHandler_LOW	PTR FTN()void  size(2) Largest target is 1
		 -> RB5_APP_ISR_LOW(), RB4_APP_ISR_LOW(), NULL(), 

    RB4_InterruptHandler_HIGH	PTR FTN()void  size(2) Largest target is 1
		 -> RB5_APP_ISR_HIGH(), RB4_APP_ISR_HIGH(), NULL(), 

    S941$INTERRUPT_HANDLER_LOW	PTR FTN()void  size(2) Largest target is 1
		 -> RB5_APP_ISR_LOW(), RB4_APP_ISR_LOW(), 

    interrupt_RBx_init@rb_obj.INTERRUPT_HANDLER_LOW	PTR FTN()void  size(2) Largest target is 1
		 -> RB5_APP_ISR_LOW(), RB4_APP_ISR_LOW(), 

    S941$INTERRUPT_HANDLER_HIGH	PTR FTN()void  size(2) Largest target is 1
		 -> RB5_APP_ISR_HIGH(), RB4_APP_ISR_HIGH(), 

    interrupt_RBx_init@rb_obj.INTERRUPT_HANDLER_HIGH	PTR FTN()void  size(2) Largest target is 1
		 -> RB5_APP_ISR_HIGH(), RB4_APP_ISR_HIGH(), 

    interrupt_RBx_init@rb_obj	PTR const struct . size(2) Largest target is 6
		 -> obj_rb5(COMRAM[6]), obj_rb4(COMRAM[6]), 

    Interrupt_INTX_setInterruptHandler@int_obj.INTERRUPT_HANDLER	PTR FTN()void  size(2) Largest target is 0

    Interrupt_INTx_clear_flag@int_obj.INTERRUPT_HANDLER	PTR FTN()void  size(2) Largest target is 0

    Interrupt_INTx_pin_init@int_obj.INTERRUPT_HANDLER	PTR FTN()void  size(2) Largest target is 0

    Interrupt_INTx_edge_init@int_obj.INTERRUPT_HANDLER	PTR FTN()void  size(2) Largest target is 0

    Interrupt_INTx_disable@int_obj.INTERRUPT_HANDLER	PTR FTN()void  size(2) Largest target is 0

    S766$INTERRUPT_HANDLER	PTR FTN()void  size(2) Largest target is 0

    Interrupt_INTx_enable@int_obj.INTERRUPT_HANDLER	PTR FTN()void  size(2) Largest target is 0

    INT2_InterruptHandler	PTR FTN()void  size(2) Largest target is 1
		 -> NULL(), 

    INT1_InterruptHandler	PTR FTN()void  size(2) Largest target is 1
		 -> NULL(), 

    INT0_InterruptHandler	PTR FTN()void  size(2) Largest target is 1
		 -> NULL(), 

    gpio_pin_write_logic@pin_config	PTR const struct . size(2) Largest target is 1
		 -> relay_turn_off@pin_obj(COMRAM[1]), relay_turn_on@pin_obj(COMRAM[1]), relay_initialize@pin_obj(COMRAM[1]), led_turn_off@led_pin(COMRAM[1]), 
		 -> led_turn_on@led_pin(COMRAM[1]), 

    gpio_pin_direction_initialize@pin_config	PTR const struct . size(2) Largest target is 6
		 -> obj_rb5(COMRAM[6]), obj_rb4(COMRAM[6]), relay_initialize@pin_obj(COMRAM[1]), led_initialize@led_pin(BANK0[1]), 

    port_register	PTR volatile unsigned char [5] size(2) Largest target is 1
		 -> PORTE(BITBIGSFRll[1]), PORTD(BITBIGSFRll[1]), PORTC(BITBIGSFRll[1]), PORTB(BITBIGSFRll[1]), 
		 -> PORTA(BITBIGSFRll[1]), 

    lat_register	PTR volatile unsigned char [5] size(2) Largest target is 1
		 -> LATE(BITBIGSFRlh[1]), LATD(BITBIGSFRlh[1]), LATC(BITBIGSFRlh[1]), LATB(BITBIGSFRlh[1]), 
		 -> LATA(BITBIGSFRll[1]), 

    tris_register	PTR volatile unsigned char [5] size(2) Largest target is 1
		 -> TRISE(BITBIGSFRhll[1]), TRISD(BITBIGSFRhll[1]), TRISC(BITBIGSFRhll[1]), TRISB(BITBIGSFRhll[1]), 
		 -> TRISA(BITBIGSFRll[1]), 

    led_turn_off@led	PTR const struct . size(2) Largest target is 2
		 -> led2(COMRAM[2]), led1(COMRAM[2]), 

    led_turn_on@led	PTR const struct . size(2) Largest target is 2
		 -> led2(COMRAM[2]), led1(COMRAM[2]), 

    led_initialize@led	PTR const struct . size(2) Largest target is 2
		 -> led2(COMRAM[2]), led1(COMRAM[2]), 

    sp__memset	PTR void  size(2) Largest target is 0


Critical Paths under _main in COMRAM

    _led_initialize->_gpio_pin_direction_initialize
    _interrupt_RBx_init->_gpio_pin_direction_initialize

Critical Paths under _InterruptNoPriority in COMRAM

    _InterruptNoPriority->_RB4_ISR
    _InterruptNoPriority->_RB5_ISR
    _InterruptNoPriority->_RB6_ISR
    _InterruptNoPriority->_RB7_ISR
    _RB5_APP_ISR_LOW->_led_turn_off
    _RB5_APP_ISR_HIGH->_led_turn_on
    _RB4_APP_ISR_LOW->_led_turn_off
    _led_turn_off->_gpio_pin_write_logic
    _RB4_APP_ISR_HIGH->_led_turn_on
    _led_turn_on->_gpio_pin_write_logic

Critical Paths under _main in BANK0

    _main->_interrupt_RBx_init
    _main->_led_initialize
    _led_initialize->_gpio_pin_direction_initialize
    _interrupt_RBx_init->_gpio_pin_direction_initialize

Critical Paths under _InterruptNoPriority in BANK0

    None.

Critical Paths under _main in BANK1

    None.

Critical Paths under _InterruptNoPriority in BANK1

    None.

Critical Paths under _main in BANK2

    None.

Critical Paths under _InterruptNoPriority in BANK2

    None.

Critical Paths under _main in BANK3

    None.

Critical Paths under _InterruptNoPriority in BANK3

    None.

Critical Paths under _main in BANK4

    None.

Critical Paths under _InterruptNoPriority in BANK4

    None.

Critical Paths under _main in BANK5

    None.

Critical Paths under _InterruptNoPriority in BANK5

    None.

Critical Paths under _main in BANK6

    None.

Critical Paths under _InterruptNoPriority in BANK6

    None.

Critical Paths under _main in BANK7

    None.

Critical Paths under _InterruptNoPriority in BANK7

    None.

Critical Paths under _main in BANK8

    None.

Critical Paths under _InterruptNoPriority in BANK8

    None.

Critical Paths under _main in BANK9

    None.

Critical Paths under _InterruptNoPriority in BANK9

    None.

Critical Paths under _main in BANK10

    None.

Critical Paths under _InterruptNoPriority in BANK10

    None.

Critical Paths under _main in BANK11

    None.

Critical Paths under _InterruptNoPriority in BANK11

    None.

Critical Paths under _main in BANK12

    None.

Critical Paths under _InterruptNoPriority in BANK12

    None.

Critical Paths under _main in BANK13

    None.

Critical Paths under _InterruptNoPriority in BANK13

    None.

Critical Paths under _main in BANK14

    None.

Critical Paths under _InterruptNoPriority in BANK14

    None.

Critical Paths under _main in BANK15

    None.

Critical Paths under _InterruptNoPriority in BANK15

    None.

Call Graph Tables:

 ---------------------------------------------------------------------------------
 (Depth) Function   	        Calls       Base Space   Used Autos Params    Refs
 ---------------------------------------------------------------------------------
 (0) _main                                                 0     0      0    2566
             _application_initialize
                 _interrupt_RBx_init
                     _led_initialize
 ---------------------------------------------------------------------------------
 (1) _led_initialize                                       5     3      2    1202
                                              6 BANK0      5     3      2
      _gpio_pin_direction_initialize
 ---------------------------------------------------------------------------------
 (1) _interrupt_RBx_init                                   5     3      2    1364
                                              6 BANK0      5     3      2
      _gpio_pin_direction_initialize
 ---------------------------------------------------------------------------------
 (2) _gpio_pin_direction_initialize                        9     7      2     797
                                             21 COMRAM     3     1      2
                                              0 BANK0      6     6      0
 ---------------------------------------------------------------------------------
 (1) _application_initialize                               0     0      0       0
 ---------------------------------------------------------------------------------
 Estimated maximum stack depth 2
 ---------------------------------------------------------------------------------
 (Depth) Function   	        Calls       Base Space   Used Autos Params    Refs
 ---------------------------------------------------------------------------------
 (3) _InterruptNoPriority                                  6     6      0   82912
                                             15 COMRAM     6     6      0
                           _INT0_ISR
                           _INT1_ISR
                           _INT2_ISR
                            _RB4_ISR
                            _RB5_ISR
                            _RB6_ISR
                            _RB7_ISR
 ---------------------------------------------------------------------------------
 (4) _RB7_ISR                                              1     1      0   20728
                                             14 COMRAM     1     1      0
                                NULL *
                   _RB4_APP_ISR_HIGH *
                    _RB4_APP_ISR_LOW *
                   _RB5_APP_ISR_HIGH *
                    _RB5_APP_ISR_LOW *
 ---------------------------------------------------------------------------------
 (4) _RB6_ISR                                              1     1      0   20728
                                             14 COMRAM     1     1      0
                                NULL *
                   _RB4_APP_ISR_HIGH *
                    _RB4_APP_ISR_LOW *
                   _RB5_APP_ISR_HIGH *
                    _RB5_APP_ISR_LOW *
 ---------------------------------------------------------------------------------
 (4) _RB5_ISR                                              1     1      0   20728
                                             14 COMRAM     1     1      0
                                NULL *
                   _RB4_APP_ISR_HIGH *
                    _RB4_APP_ISR_LOW *
                   _RB5_APP_ISR_HIGH *
                    _RB5_APP_ISR_LOW *
 ---------------------------------------------------------------------------------
 (4) _RB4_ISR                                              1     1      0   20728
                                             14 COMRAM     1     1      0
                                NULL *
                   _RB4_APP_ISR_HIGH *
                    _RB4_APP_ISR_LOW *
                   _RB5_APP_ISR_HIGH *
                    _RB5_APP_ISR_LOW *
 ---------------------------------------------------------------------------------
 (5) _RB5_APP_ISR_LOW                                      0     0      0    5171
                       _led_turn_off
 ---------------------------------------------------------------------------------
 (5) _RB5_APP_ISR_HIGH                                     0     0      0    5171
                        _led_turn_on
 ---------------------------------------------------------------------------------
 (5) _RB4_APP_ISR_LOW                                      0     0      0    5171
                       _led_turn_off
 ---------------------------------------------------------------------------------
 (6) _led_turn_off                                         5     3      2    5171
                                             10 COMRAM     4     2      2
               _gpio_pin_write_logic
 ---------------------------------------------------------------------------------
 (5) _RB4_APP_ISR_HIGH                                     0     0      0    5171
                        _led_turn_on
 ---------------------------------------------------------------------------------
 (6) _led_turn_on                                          5     3      2    5171
                                             10 COMRAM     4     2      2
               _gpio_pin_write_logic
 ---------------------------------------------------------------------------------
 (7) _gpio_pin_write_logic                                10     7      3    4891
                                              0 COMRAM    10     7      3
 ---------------------------------------------------------------------------------
 (5) NULL(Fake)                                            0     0      0       0
 ---------------------------------------------------------------------------------
 (4) _INT2_ISR                                             0     0      0       0
 ---------------------------------------------------------------------------------
 (4) _INT1_ISR                                             0     0      0       0
 ---------------------------------------------------------------------------------
 (4) _INT0_ISR                                             0     0      0       0
 ---------------------------------------------------------------------------------
 Estimated maximum stack depth 7
 ---------------------------------------------------------------------------------

 Call Graph Graphs:

 _main (ROOT)
   _application_initialize
   _interrupt_RBx_init
     _gpio_pin_direction_initialize
   _led_initialize
     _gpio_pin_direction_initialize

 _InterruptNoPriority (ROOT)
   _INT0_ISR
   _INT1_ISR
   _INT2_ISR
   _RB4_ISR
     NULL(Fake) *
     _RB4_APP_ISR_HIGH *
       _led_turn_on
         _gpio_pin_write_logic
     _RB4_APP_ISR_LOW *
       _led_turn_off
         _gpio_pin_write_logic
     _RB5_APP_ISR_HIGH *
       _led_turn_on
     _RB5_APP_ISR_LOW *
       _led_turn_off
   _RB5_ISR
     NULL(Fake) *
     _RB4_APP_ISR_HIGH *
     _RB4_APP_ISR_LOW *
     _RB5_APP_ISR_HIGH *
     _RB5_APP_ISR_LOW *
   _RB6_ISR
     NULL(Fake) *
     _RB4_APP_ISR_HIGH *
     _RB4_APP_ISR_LOW *
     _RB5_APP_ISR_HIGH *
     _RB5_APP_ISR_LOW *
   _RB7_ISR
     NULL(Fake) *
     _RB4_APP_ISR_HIGH *
     _RB4_APP_ISR_LOW *
     _RB5_APP_ISR_HIGH *
     _RB5_APP_ISR_LOW *

 Address spaces:
Name               Size   Autos  Total    Cost      Usage
BIGRAM             F7F      0       0      41        0.0%
EEDATA             400      0       0       0        0.0%
BITBANK14          100      0       0      33        0.0%
BANK14             100      0       0      34        0.0%
BITBANK13          100      0       0      31        0.0%
BANK13             100      0       0      32        0.0%
BITBANK12          100      0       0      29        0.0%
BANK12             100      0       0      30        0.0%
BITBANK11          100      0       0      27        0.0%
BANK11             100      0       0      28        0.0%
BITBANK10          100      0       0      24        0.0%
BANK10             100      0       0      25        0.0%
BITBANK9           100      0       0      22        0.0%
BANK9              100      0       0      23        0.0%
BITBANK8           100      0       0      20        0.0%
BANK8              100      0       0      21        0.0%
BITBANK7           100      0       0      18        0.0%
BANK7              100      0       0      19        0.0%
BITBANK6           100      0       0      16        0.0%
BANK6              100      0       0      17        0.0%
BITBANK5           100      0       0      14        0.0%
BANK5              100      0       0      15        0.0%
BITBANK4           100      0       0      12        0.0%
BANK4              100      0       0      13        0.0%
BITBANK3           100      0       0      10        0.0%
BANK3              100      0       0      11        0.0%
BITBANK2           100      0       0       8        0.0%
BANK2              100      0       0       9        0.0%
BITBANK1           100      0       0       6        0.0%
BANK1              100      0       0       7        0.0%
BITBANK15           80      0       0      35        0.0%
BANK15              80      0       0      36        0.0%
BITBANK0            80      0       0       4        0.0%
BANK0               80      B       B       5        8.6%
BITCOMRAM           7E      0       0       0        0.0%
COMRAM              7E     18      69       1       83.3%
BITBIGSFRhll        59      0       0      38        0.0%
BITBIGSFRhh          D      0       0      37        0.0%
BITBIGSFRlh          4      0       0      39        0.0%
BITBIGSFRll          4      0       0      40        0.0%
BIGSFR               0      0       0     200        0.0%
BITSFR               0      0       0     200        0.0%
SFR                  0      0       0     200        0.0%
STACK                0      0       0       2        0.0%
NULL                 0      0       0       0        0.0%
ABS                  0      0      74      26        0.0%
DATA                 0      0      74       3        0.0%
CODE                 0      0       0       0        0.0%


Microchip Technology PIC18 Macro Assembler V2.41 build 20230208172133 
Symbol Table                                                                                   Thu Aug 03 06:04:26 2023

             __end_of_interrupt_RBx_init 154A                  __end_of_RB5_APP_ISR_LOW 1ACE  
               __end_of_RB5_APP_ISR_HIGH 1AEA                                      l231 1696  
                                    l235 1700                                      l600 1540  
                                    l605 1548                                      l376 1414  
                                    l730 1A42                                      l735 1AF6  
                                    l729 1A42                                      l596 1432  
                                    l597 1546                _RB5_InterruptHandler_HIGH 003D  
                                    _ret 0069                      led_initialize@F3048 0050  
                                    prod 0FF3                                      tosl 0FFD  
                  relay_initialize@F3044 004C                                      wreg 0FE8  
                           ?_led_turn_on 005B                          __end_of_RB4_ISR 19FE  
                        __end_of_RB5_ISR 1980                          __end_of_RB6_ISR 1902  
                        __end_of_RB7_ISR 1884                    ??_InterruptNoPriority 0060  
                                   l4004 151A                                     l4006 13FC  
                                   l3700 1476                                     l3710 14D6  
                                   l3702 1486                                     l3712 14EE  
                                   l3704 149E                                     l3650 12D0  
                                   l3706 14AE                                     l3714 14F2  
                                   l3652 12E2                                     l3716 1542  
                                   l3708 14C6                                     l3662 13D0  
                                   l3654 1306                                     l3656 130E  
                                   l3664 1412                                     l3648 12CC  
                                   l3680 16D0                                     l3672 1676  
                                   l3658 1372                                     l3690 1416  
                                   l3682 16F0                                     l3674 167C  
                                   l3930 19FE                                     l3692 142A  
                                   l3684 16FC                                     l3676 168E  
                                   l3932 1A3E                                     l3694 143A  
                                   l3678 169A                                     l3696 144E  
                                   l3688 1416                                     l3698 145E  
                                   STR_1 1011                                     u3100 12E2  
                                   u3101 12DE                                     _LATA 0F89  
                                   u3110 1306                                     _LATB 0F8A  
                                   u3111 1302                                     _LATC 0F8B  
                                   _LATD 0F8C                                     _LATE 0F8D  
                                   u3140 13E8                                     u3124 132E  
                                   u3141 13E2                                     u3125 132A  
                                   u3150 13EA                                     u3134 1392  
                                   u3135 138E                                     u3160 168E  
                                   u3161 168A                                     u3170 142A  
                                   u3171 1426                 _RB4_InterruptHandler_LOW 003F  
                                   _led1 0031                                     _led2 002F  
                                   _main 19FE                 _RB7_InterruptHandler_LOW 0033  
                                   fsr2h 0FDA                                     indf2 0FDF  
                                   fsr1l 0FE1                                     fsr2l 0FD9  
                                   btemp 006A                   __end_of_led_initialize 1702  
                                   prodh 0FF4                                     prodl 0FF3  
                                   start 000E                            ?_led_turn_off 005B  
                           ___param_bank 0000                     _gpio_pin_write_logic 154A  
                       ?_RB4_APP_ISR_LOW 0051                         __end_of_INT0_ISR 1AF6  
                       __end_of_INT1_ISR 1AF2                         __end_of_INT2_ISR 1AEE  
                                  ?_main 0051                 ??_application_initialize 0066  
                                  i2l242 1804                                    i2l501 1AEC  
                                  i2l245 1718                                    i2l238 179A  
                                  i2l249 1782                                    i2l614 19FC  
                                  i2l711 1ADA                                    i2l623 197E  
                                  i2l720 1ACC                                    i2l632 1900  
                                  i2l641 1882                                    i2l714 1ABE  
                                  i2l395 1674                                    i2l493 1AF4  
                                  i2l717 1AE8                                    i2l497 1AF0  
                                  i2l681 10D4                                    i2l690 126C  
                                  i2l675 1050                                    i2l692 12B0  
                                  i2l684 115C                                    i2l677 1070  
                                  i2l687 11E4                                    i2l679 1090  
                    relay_turn_off@F3054 004A                                    _PORTA 0F80  
                                  _PORTB 0F81                                    _PORTC 0F82  
                                  _PORTD 0F83                                    _PORTE 0F84  
                                  _TRISA 0F92                                    _TRISB 0F93  
                                  _TRISC 0F94                                    _TRISD 0F95  
                                  _TRISE 0F96                                    pclath 0FFA  
                                  pclatu 0FFB                                    tablat 0FF5  
                                  ttemp5 006B                                    ttemp6 006E  
                                  ttemp7 0072                                    status 0FD8  
                                  wtemp8 006B                          ?_led_initialize 0086  
                         ??_led_turn_off 005D           ?_gpio_pin_direction_initialize 0066  
                        __initialization 1A4A                             __end_of_main 1A4A  
                  ?_gpio_pin_write_logic 0051                        RB4_ISR@rb4_source 005F  
                       ?_RB5_APP_ISR_LOW 0051                                   ??_main 0069  
                      ?_RB4_APP_ISR_HIGH 0051                            __activetblptr 0003  
                       led_turn_on@F3053 004F                                ??_RB4_ISR 005F  
                              ??_RB5_ISR 005F                                ??_RB6_ISR 005F  
                              ??_RB7_ISR 005F                       ??_RB4_APP_ISR_HIGH 005F  
                                 i2l3010 1994                                   i2l3012 19A6  
                                 i2l3020 1904                                   i2l3014 19C2  
                                 i2l3006 1982                                   i2l3030 1954  
                                 i2l3022 1906                                   i2l3016 19D2  
                                 i2l3008 1984                                   i2l3032 1966  
                                 i2l3024 1916                                   i2l3040 18AA  
                                 i2l3018 19E4                                   i2l3026 1928  
                                 i2l3042 18C6                                   i2l3034 1886  
                                 i2l3050 180A                                   i2l3028 1944  
                                 i2l3044 18D6                                   i2l3036 1888  
                                 i2l3060 186A                                   i2l3052 181A  
                                 i2l3046 18E8                                   i2l3038 1898  
                                 i2l3054 182C                                   i2l4008 165C  
                                 i2l3056 1848                                   i2l3048 1808  
                                 i2l3058 1858                                   i2l1662 1AF2  
                                 i2l1672 1AEA                                   i2l3600 11F2  
                                 i2l3602 1200                                   i2l3610 1228  
                                 i2l1668 1AEE                                   i2l2740 154E  
                                 i2l3620 1266                                   i2l3612 1236  
                                 i2l3604 120E                                   i2l3540 106C  
                                 i2l3532 1030                                   i2l2742 1560  
                                 i2l3630 12AA                                   i2l3622 127A  
                                 i2l3614 1244                                   i2l3606 121E  
                                 i2l3550 10BA                                   i2l3542 107E  
                                 i2l3534 103E                                   i2l2752 1648  
                                 i2l2744 1582                                   i2l3624 1288  
                                 i2l3616 1252                                   i2l3608 1222  
                                 i2l3560 10FE                                   i2l3552 10CA  
                                 i2l3544 108C                                   i2l3536 104C  
                                 i2l2746 158A                                   i2l2754 1672  
                                 i2l2738 154A                                   i2l2770 17D4  
                                 i2l2762 1784                                   i2l3626 1296  
                                 i2l3618 1262                                   i2l3570 1134  
                                 i2l3562 110E                                   i2l3554 10CE  
                                 i2l3546 109E                                   i2l3538 105E  
                                 i2l2748 15EC                                   i2l2772 17F4  
                                 i2l2764 1784                                   i2l2780 1714  
                                 i2l3628 12A6                                   i2l3580 1178  
                                 i2l3572 1142                                   i2l3564 1112  
                                 i2l3556 10E2                                   i2l3548 10AC  
                                 i2l2766 1796                                   i2l2782 171C  
                                 i2l3590 11AE                                   i2l3582 1186  
                                 i2l3574 1152                                   i2l3558 10F0  
                                 i2l3566 1118                                   i2l2768 179E  
                                 i2l2784 1752                                   i2l2776 1702  
                                 i2l3592 11BC                                   i2l3584 1196  
                                 i2l3576 1156                                   i2l3568 1126  
                                 i2l2786 1772                                   i2l2778 1702  
                                 i2l2890 1AC0                                   i2l3594 11CA  
                                 i2l3586 119A                                   i2l3578 116A  
                                 i2l2884 1ACE                                   i2l3596 11DA  
                                 i2l3588 11A0                                   i2l2886 1AB2  
                                 i2l3598 11DE                                   i2l2888 1ADC  
                          _tris_register 0015                    led_initialize@led_pin 008A  
                                 clear_0 1A70                                   isa$std 0001  
                           __pdataCOMRAM 0001                             __mediumconst 0000  
                                 tblptrh 0FF7                                   tblptrl 0FF6  
                                 tblptru 0FF8                        RB6_ISR@rb6_source 005F  
                             __accesstop 0080                  __end_of__initialization 1A76  
                              ?_INT0_ISR 0051                                ?_INT1_ISR 0051  
                              ?_INT2_ISR 0051                            ___rparam_used 0001  
                      led_initialize@led 0086                        led_initialize@ret 0089  
                 ??_gpio_pin_write_logic 0054                           __pcstackCOMRAM 0051  
                      ?_RB5_APP_ISR_HIGH 0051                     __end_of_led_turn_off 1784  
                     ??_RB5_APP_ISR_HIGH 005F                       _interrupt_RBx_init 1416  
                  _INT0_InterruptHandler 0047                               ??_INT0_ISR 0051  
                             ??_INT1_ISR 0051                      ?_interrupt_RBx_init 0086  
                             ??_INT2_ISR 0051                   _application_initialize 1AF6  
                             __pnvCOMRAM 0069                        led_turn_off@F3058 004E  
                        led_toggle@F3063 004D                     ??_interrupt_RBx_init 0088  
                                _RB4_ISR 1980                                  _RB5_ISR 1902  
                                _RB6_ISR 1884                                  _RB7_ISR 1806  
            __end_of_InterruptNoPriority 12CC                _RB6_InterruptHandler_HIGH 0039  
                       ??_led_initialize 0088                               _btn_values 1001  
               _RB6_InterruptHandler_LOW 0037                                  __Hparam 0000  
                                __Lparam 0000                             __psmallconst 1000  
                                __pcinit 1A4A                                  __ramtop 1000  
                                __ptext0 19FE                                  __ptext1 1676  
                                __ptext2 1416                                  __ptext3 12CC  
                                __ptext4 1AF6                                  __ptext6 1806  
                                __ptext7 1884                                  __ptext8 1902  
                                __ptext9 1980                                  _obj_rb4 0029  
                                _obj_rb5 0023          ??_gpio_pin_direction_initialize 0080  
                     fp__RB4_APP_ISR_LOW 0000                           __pintcode_body 1016  
                   end_of_initialization 1A76                                  int_func 1016  
                    led_turn_off@led_pin 005E                                  postdec1 0FE5  
                                postdec2 0FDD                                  postinc0 0FEE  
                                postinc2 0FDE                    _INT1_InterruptHandler 0045  
                              _PORTBbits 0F81                       fp__RB5_APP_ISR_LOW 0000  
                           _led_turn_off 1702                       relay_turn_on@F3049 004B  
                      relay_toggle@F3059 0049                            __pidataCOMRAM 1A80  
                    start_initialization 1A4A                            ??_led_turn_on 005D  
  __end_of_gpio_pin_direction_initialize 1416            _gpio_pin_direction_initialize 12CC  
                           _lat_register 000B                  ?_application_initialize 0051  
                      ??_RB4_APP_ISR_LOW 005F                          led_turn_off@led 005B  
                               ?_RB4_ISR 0051                                 ?_RB5_ISR 0051  
                               ?_RB6_ISR 0051                                 ?_RB7_ISR 0051  
                            __pbssCOMRAM 0033                            __pcstackBANK0 0080  
         __end_of_application_initialize 1AF8                      __end_of_led_turn_on 1806  
                      ??_RB5_APP_ISR_LOW 005F                         _RB4_APP_ISR_HIGH 1ACE  
                  _INT2_InterruptHandler 0043           gpio_pin_write_logic@pin_config 0051  
                              __pintcode 0008                gpio_pin_write_logic@logic 0053  
                      RB5_ISR@rb5_source 005F                              __smallconst 1000  
              _RB4_InterruptHandler_HIGH 0041                _RB7_InterruptHandler_HIGH 0035  
                               _RB4_FLAG 0022                                 _RB5_FLAG 0021  
                               _RB6_FLAG 0020                                 _RB7_FLAG 001F  
               _RB5_InterruptHandler_LOW 003B                                 _INT0_ISR 1AF2  
                               _INT1_ISR 1AEE                                 _INT2_ISR 1AEA  
                     led_turn_on@led_pin 005E                                 i2u210_40 1916  
                               i2u210_41 1912                                 i2u211_40 1928  
                               i2u211_41 1924                                 i2u204_40 1994  
                               i2u220_40 18E8                                 i2u300_40 120E  
                               i2u204_41 1990                                 i2u220_41 18E4  
                               i2u300_41 120A                                 i2u205_40 19A6  
                               i2u213_40 1954                                 i2u212_48 192E  
                               i2u301_40 121E                                 i2u205_41 19A2  
                               i2u213_41 1950                                 i2u212_49 1940  
                               i2u301_41 121A                                 i2u214_40 1966  
                               i2u221_48 18EE                                 i2u222_40 181A  
                               i2u302_40 1236                                 i2u214_41 1962  
                               i2u221_49 1900                                 i2u222_41 1816  
                               i2u302_41 1232                                 i2u207_40 19D2  
                               i2u206_48 19AC                                 i2u223_40 182C  
                               i2u303_40 1244                                 i2u207_41 19CE  
                               i2u206_49 19BE                                 i2u223_41 1828  
                               i2u303_41 1240                                 i2u208_40 19E4  
                               i2u215_48 196C                                 i2u216_40 1898  
                               i2u304_40 1252                                 i2u208_41 19E0  
                               i2u215_49 197E                                 i2u216_41 1894  
                               i2u304_41 124E                                 i2u217_40 18AA  
                               i2u225_40 1858                                 i2u224_48 1832  
                               i2u305_40 1262                                 i2u217_41 18A6  
                               i2u225_41 1854                                 i2u224_49 1844  
                               i2u305_41 125E                                 i2u209_48 19EA  
                               i2u226_40 186A                                 i2u306_40 127A  
                               i2u209_49 19FC                                 i2u226_41 1866  
                               i2u306_41 1276                                 i2u219_40 18D6  
                               i2u218_48 18B0                                 i2u307_40 1288  
                               i2u219_41 18D2                                 i2u218_49 18C2  
                               i2u307_41 1284                                 i2u227_48 1870  
                               i2u308_40 1296                                 i2u227_49 1882  
                               i2u308_41 1292                                 i2u180_44 15AA  
                               i2u180_45 15A6                                 i2u309_40 12A6  
                               i2u309_41 12A2                                 i2u181_44 160C  
                               i2u181_45 1608                                 i2u182_40 1796  
                               i2u182_41 1792                                 i2u183_40 1714  
                               i2u183_41 1710                                 i2u280_40 10BA  
                               i2u272_40 103E                                 i2u280_41 10B6  
                               i2u272_41 103A                                 i2u281_40 10CA  
                               i2u273_40 104C                                 i2u281_41 10C6  
                               i2u273_41 1048                                 i2u178_40 1560  
                               i2u290_40 116A                                 i2u282_40 10E2  
                               i2u274_40 105E                                 i2u178_41 155C  
                               i2u290_41 1166                                 i2u282_41 10DE  
                               i2u274_41 105A                                 i2u179_40 1582  
                               i2u291_40 1178                                 i2u283_40 10F0  
                               i2u275_40 106C                                 i2u179_41 157E  
                               i2u291_41 1174                                 i2u283_41 10EC  
                               i2u275_41 1068                                 i2u292_40 1186  
                               i2u284_40 10FE                                 i2u276_40 107E  
                               i2u292_41 1182                                 i2u284_41 10FA  
                               i2u276_41 107A                                 i2u293_40 1196  
                               i2u285_40 110E                                 i2u277_40 108C  
                               i2u293_41 1192                                 i2u285_41 110A  
                               i2u277_41 1088                                 i2u294_40 11AE  
                               i2u286_40 1126                                 i2u278_40 109E  
                               i2u294_41 11AA                                 i2u286_41 1122  
                               i2u278_41 109A                                 i2u295_40 11BC  
                               i2u287_40 1134                                 i2u279_40 10AC  
                               i2u295_41 11B8                                 i2u287_41 1130  
                               i2u279_41 10A8                                 i2u296_40 11CA  
                               i2u288_40 1142                                 i2u296_41 11C6  
                               i2u288_41 113E                                 i2u297_40 11DA  
                               i2u289_40 1152                                 i2u297_41 11D6  
                               i2u289_41 114E                                 i2u298_40 11F2  
                               i2u298_41 11EE                                 i2u299_40 1200  
                               i2u299_41 11FC         gpio_pin_direction_initialize@ret 0068  
gpio_pin_direction_initialize@pin_config 0066                              _led_turn_on 1784  
                gpio_pin_write_logic@ret 005A                              _INTCON2bits 0FF1  
                            _INTCON3bits 0FF0                                copy_data0 1A5E  
                      RB7_ISR@rb7_source 005F                         _RB5_APP_ISR_HIGH 1ADC  
                         led_turn_on@led 005B                                 __Hrparam 0000  
                               __Lrparam 0000                       __end_of_btn_values 1011  
                        _RB4_APP_ISR_LOW 1AB2                                 __ptext10 1AB2  
                               __ptext11 1AC0                                 __ptext20 0000  
                               __ptext12 1ACE                                 __ptext13 1ADC  
                               __ptext14 1702                                 __ptext15 1784  
                               __ptext16 154A                                 __ptext17 1AEA  
                               __ptext18 1AEE                                 __ptext19 1AF2  
                    fp__RB4_APP_ISR_HIGH 0000                                 isa$xinst 0000  
                               int$flags 006A                 __end_of_RB4_APP_ISR_HIGH 1ADC  
                             _INTCONbits 0FF2                          _RB5_APP_ISR_LOW 1AC0  
           __end_of_gpio_pin_write_logic 1676                                 intlevel2 0000  
               interrupt_RBx_init@rb_obj 0086                  __end_of_RB4_APP_ISR_LOW 1AC0  
                    _InterruptNoPriority 0008                     ?_InterruptNoPriority 0051  
                          _port_register 0001                    interrupt_RBx_init@ret 008A  
                         _led_initialize 1676                      fp__RB5_APP_ISR_HIGH 0000  
